Archive member included because of file (symbol)

/mnt/scratch/gnuarm/arm-none-eabi/lib//libc.a(lib_a-memset.o)
                              src/raspi/irq.o (memset)
/mnt/scratch/gnuarm/lib/gcc/arm-none-eabi/4.8.1/libgcc.a(_arm_addsubdf3.o)
                              src/raspi/mpu60x0.o (__aeabi_dadd)
/mnt/scratch/gnuarm/lib/gcc/arm-none-eabi/4.8.1/libgcc.a(_arm_muldivdf3.o)
                              src/raspi/mpu60x0.o (__aeabi_ddiv)

Allocating common symbols
Common symbol       size              file

irq_handlers        0x100             src/raspi/irq.o

Memory Configuration

Name             Origin             Length             Attributes
ram              0x00008000         0x10000000
*default*        0x00000000         0xffffffff

Linker script and memory map

LOAD src/raspi/vectors.o
LOAD src/raspi/gpio.o
LOAD src/raspi/irq.o
LOAD src/raspi/main.o
LOAD src/raspi/mpu60x0.o
LOAD src/raspi/mpu60x0regs.o
LOAD src/raspi/spi.o
LOAD src/raspi/support.o
LOAD src/raspi/uart.o

.text           0x00008000     0x13a0
 *(.text)
 .text          0x00008000       0xd4 src/raspi/vectors.o
                0x00008000                _start
                0x00008084                PUT32
                0x0000808c                PUT16
                0x00008094                PUT8
                0x0000809c                GET32
                0x000080a4                GETPC
                0x000080ac                BRANCHTO
                0x000080b0                dummy
                0x000080b4                enable_irq
 .text          0x000080d4       0x64 src/raspi/gpio.o
                0x000080d4                gpio_function_select
 .text          0x00008138      0x1e4 src/raspi/irq.o
                0x00008138                irq_gpio_falling_edge_en
                0x00008194                enable_interrupt_for_irq
                0x000081f8                c_irq_handler
                0x000082c0                register_irq_handler
                0x000082fc                c_enable_irq
 .text          0x0000831c       0x90 src/raspi/main.o
                0x0000831c                gpio_irq
                0x00008344                not_main
 .text          0x000083ac      0x2ac src/raspi/mpu60x0.o
                0x000083ac                mpu60x0_enable_interrupt
                0x000083b8                mpu60x0_init
                0x0000845c                mpu60x0_get_reading
 .text          0x00008658        0x0 src/raspi/mpu60x0regs.o
 .text          0x00008658      0x1b8 src/raspi/spi.o
                0x00008658                spi_pin_init
                0x000086a0                spi_begin
                0x000086d0                spi_transfer
                0x00008748                spi_write
                0x0000879c                spi_read
                0x000087f4                spi_end
 .text          0x00008810       0x1c src/raspi/support.o
                0x00008810                wait
 .text          0x0000882c      0x1c8 src/raspi/uart.o
                0x0000882c                uart_init
                0x00008934                uart_putc
                0x00008964                uart_getc
                0x000089a4                uart_puts
                0x000089cc                uart_putbuf
 .text          0x000089f4       0xf4 /mnt/scratch/gnuarm/arm-none-eabi/lib//libc.a(lib_a-memset.o)
                0x000089f4                memset
 .text          0x00008ae8      0x41c /mnt/scratch/gnuarm/lib/gcc/arm-none-eabi/4.8.1/libgcc.a(_arm_addsubdf3.o)
                0x00008ae8                __aeabi_drsub
                0x00008af0                __aeabi_dsub
                0x00008af0                __subdf3
                0x00008af4                __adddf3
                0x00008af4                __aeabi_dadd
                0x00008e04                __aeabi_ui2d
                0x00008e04                __floatunsidf
                0x00008e28                __floatsidf
                0x00008e28                __aeabi_i2d
                0x00008e50                __extendsfdf2
                0x00008e50                __aeabi_f2d
                0x00008e90                __aeabi_ul2d
                0x00008e90                __floatundidf
                0x00008ea4                __floatdidf
                0x00008ea4                __aeabi_l2d
 .text          0x00008f04      0x49c /mnt/scratch/gnuarm/lib/gcc/arm-none-eabi/4.8.1/libgcc.a(_arm_muldivdf3.o)
                0x00008f04                __aeabi_dmul
                0x00008f04                __muldf3
                0x00009194                __aeabi_ddiv
                0x00009194                __divdf3

.rodata         0x000093a0       0x48
 .rodata        0x000093a0        0x8 src/raspi/irq.o
                0x000093a0                IRQ_BITS_PER_REG
                0x000093a4                GPIO_TOTAL
 .rodata        0x000093a8       0x40 src/raspi/mpu60x0regs.o
                0x000093a8                inv_mpu60x0_gyro_conv_ratio
                0x000093c8                inv_mpu60x0_accl_conv_ratio

.glue_7         0x000093e8        0x0
 .glue_7        0x00000000        0x0 linker stubs

.glue_7t        0x000093e8        0x0
 .glue_7t       0x00000000        0x0 linker stubs

.vfp11_veneer   0x000093e8        0x0
 .vfp11_veneer  0x00000000        0x0 linker stubs

.v4_bx          0x000093e8        0x0
 .v4_bx         0x00000000        0x0 linker stubs

.iplt           0x000093e8        0x0
 .iplt          0x00000000        0x0 src/raspi/vectors.o

.rel.dyn        0x000093e8        0x0
 .rel.iplt      0x00000000        0x0 src/raspi/vectors.o

.data           0x000093e8       0x68
 *(.data)
 .data          0x000093e8        0x0 src/raspi/vectors.o
 .data          0x000093e8       0x10 src/raspi/gpio.o
                0x000093e8                GPIO_GPFSEL0
                0x000093ec                GPIO_GPLEV0
                0x000093f0                GPIO_GPCLR0
                0x000093f4                GPIO_GPSET0
 .data          0x000093f8       0x40 src/raspi/irq.o
                0x000093f8                GPIO_FEN0
                0x000093fc                IRQ_TOTAL
                0x00009400                IRQ_IRQ1ENABLE
                0x00009404                IRQ_PENDING1
                0x00009408                IRQ_PENDING2
                0x0000940c                GPIO_INT3
                0x00009410                GPIO_INT2
                0x00009414                GPIO_INT1
                0x00009418                GPIO_INT0
                0x0000941c                IRQ_BASICDISABLE
                0x00009420                IRQ_IRQ1DISABLE
                0x00009424                IRQ_BASICENABLE
                0x00009428                IRQ_IRQ2ENABLE
                0x0000942c                IRQ_FIQ_CONTROL
                0x00009430                IRQ_BASICPENDING
                0x00009434                IRQBASE
 .data          0x00009438        0x0 src/raspi/main.o
 .data          0x00009438        0x0 src/raspi/mpu60x0.o
 .data          0x00009438        0x0 src/raspi/mpu60x0regs.o
 .data          0x00009438       0x18 src/raspi/spi.o
                0x00009438                SPI0_CONTROL
                0x0000943c                SPI0_CLK
                0x00009440                SPI0_FIFO
                0x00009444                SPI0_DC
                0x00009448                SPI0_LTOH
                0x0000944c                SPI0_DLEN
 .data          0x00009450        0x0 src/raspi/support.o
 .data          0x00009450        0x0 src/raspi/uart.o
 .data          0x00009450        0x0 /mnt/scratch/gnuarm/arm-none-eabi/lib//libc.a(lib_a-memset.o)
 .data          0x00009450        0x0 /mnt/scratch/gnuarm/lib/gcc/arm-none-eabi/4.8.1/libgcc.a(_arm_addsubdf3.o)
 .data          0x00009450        0x0 /mnt/scratch/gnuarm/lib/gcc/arm-none-eabi/4.8.1/libgcc.a(_arm_muldivdf3.o)
                0x00009450                __bss_start__ = .

.igot.plt       0x00009450        0x0
 .igot.plt      0x00000000        0x0 src/raspi/vectors.o

.bss            0x00009450      0x104
 *(.bss)
 .bss           0x00009450        0x0 src/raspi/vectors.o
 .bss           0x00009450        0x0 src/raspi/gpio.o
 .bss           0x00009450        0x0 src/raspi/irq.o
 .bss           0x00009450        0x4 src/raspi/main.o
                0x00009450                flag
 .bss           0x00009454        0x0 src/raspi/mpu60x0.o
 .bss           0x00009454        0x0 src/raspi/mpu60x0regs.o
 .bss           0x00009454        0x0 src/raspi/spi.o
 .bss           0x00009454        0x0 src/raspi/support.o
 .bss           0x00009454        0x0 src/raspi/uart.o
 .bss           0x00009454        0x0 /mnt/scratch/gnuarm/arm-none-eabi/lib//libc.a(lib_a-memset.o)
 .bss           0x00009454        0x0 /mnt/scratch/gnuarm/lib/gcc/arm-none-eabi/4.8.1/libgcc.a(_arm_addsubdf3.o)
 .bss           0x00009454        0x0 /mnt/scratch/gnuarm/lib/gcc/arm-none-eabi/4.8.1/libgcc.a(_arm_muldivdf3.o)
 COMMON         0x00009454      0x100 src/raspi/irq.o
                0x00009454                irq_handlers
                0x00009554                __bss_end__ = .
LOAD /mnt/scratch/gnuarm/arm-none-eabi/lib//libc.a
LOAD /mnt/scratch/gnuarm/lib/gcc/arm-none-eabi/4.8.1/libgcc.a
LOAD /mnt/scratch/gnuarm/arm-none-eabi/lib//libm.a
OUTPUT(bin/kernel.elf elf32-littlearm)

.ARM.attributes
                0x00000000       0x34
 .ARM.attributes
                0x00000000       0x26 src/raspi/vectors.o
 .ARM.attributes
                0x00000026       0x38 src/raspi/gpio.o
 .ARM.attributes
                0x0000005e       0x38 src/raspi/irq.o
 .ARM.attributes
                0x00000096       0x38 src/raspi/main.o
 .ARM.attributes
                0x000000ce       0x38 src/raspi/mpu60x0.o
 .ARM.attributes
                0x00000106       0x38 src/raspi/mpu60x0regs.o
 .ARM.attributes
                0x0000013e       0x38 src/raspi/spi.o
 .ARM.attributes
                0x00000176       0x38 src/raspi/support.o
 .ARM.attributes
                0x000001ae       0x38 src/raspi/uart.o
 .ARM.attributes
                0x000001e6       0x30 /mnt/scratch/gnuarm/arm-none-eabi/lib//libc.a(lib_a-memset.o)
 .ARM.attributes
                0x00000216       0x18 /mnt/scratch/gnuarm/lib/gcc/arm-none-eabi/4.8.1/libgcc.a(_arm_addsubdf3.o)
 .ARM.attributes
                0x0000022e       0x18 /mnt/scratch/gnuarm/lib/gcc/arm-none-eabi/4.8.1/libgcc.a(_arm_muldivdf3.o)

.comment        0x00000000       0x81
 .comment       0x00000000       0x70 src/raspi/gpio.o
                                 0x71 (size before relaxing)
 .comment       0x00000000       0x71 src/raspi/irq.o
 .comment       0x00000000       0x71 src/raspi/main.o
 .comment       0x00000000       0x71 src/raspi/mpu60x0.o
 .comment       0x00000000       0x71 src/raspi/mpu60x0regs.o
 .comment       0x00000000       0x71 src/raspi/spi.o
 .comment       0x00000000       0x71 src/raspi/support.o
 .comment       0x00000000       0x71 src/raspi/uart.o
 .comment       0x00000070       0x11 /mnt/scratch/gnuarm/arm-none-eabi/lib//libc.a(lib_a-memset.o)
                                 0x12 (size before relaxing)

.debug_line     0x00000000      0xc7a
 .debug_line    0x00000000       0x70 src/raspi/vectors.o
 .debug_line    0x00000070       0x61 src/raspi/gpio.o
 .debug_line    0x000000d1      0x189 src/raspi/irq.o
 .debug_line    0x0000025a      0x12b src/raspi/main.o
 .debug_line    0x00000385      0x1b9 src/raspi/mpu60x0.o
 .debug_line    0x0000053e       0xbb src/raspi/mpu60x0regs.o
 .debug_line    0x000005f9      0x128 src/raspi/spi.o
 .debug_line    0x00000721       0x44 src/raspi/support.o
 .debug_line    0x00000765      0x10f src/raspi/uart.o
 .debug_line    0x00000874      0x122 /mnt/scratch/gnuarm/arm-none-eabi/lib//libc.a(lib_a-memset.o)
 .debug_line    0x00000996      0x164 /mnt/scratch/gnuarm/lib/gcc/arm-none-eabi/4.8.1/libgcc.a(_arm_addsubdf3.o)
 .debug_line    0x00000afa      0x180 /mnt/scratch/gnuarm/lib/gcc/arm-none-eabi/4.8.1/libgcc.a(_arm_muldivdf3.o)

.debug_info     0x00000000     0x1a6b
 .debug_info    0x00000000       0x63 src/raspi/vectors.o
 .debug_info    0x00000063      0x126 src/raspi/gpio.o
 .debug_info    0x00000189      0x45d src/raspi/irq.o
 .debug_info    0x000005e6      0x36b src/raspi/main.o
 .debug_info    0x00000951      0x594 src/raspi/mpu60x0.o
 .debug_info    0x00000ee5       0xd0 src/raspi/mpu60x0regs.o
 .debug_info    0x00000fb5      0x3da src/raspi/spi.o
 .debug_info    0x0000138f       0x56 src/raspi/support.o
 .debug_info    0x000013e5      0x443 src/raspi/uart.o
 .debug_info    0x00001828      0x117 /mnt/scratch/gnuarm/arm-none-eabi/lib//libc.a(lib_a-memset.o)
 .debug_info    0x0000193f       0x96 /mnt/scratch/gnuarm/lib/gcc/arm-none-eabi/4.8.1/libgcc.a(_arm_addsubdf3.o)
 .debug_info    0x000019d5       0x96 /mnt/scratch/gnuarm/lib/gcc/arm-none-eabi/4.8.1/libgcc.a(_arm_muldivdf3.o)

.debug_abbrev   0x00000000      0xa01
 .debug_abbrev  0x00000000       0x14 src/raspi/vectors.o
 .debug_abbrev  0x00000014       0xa8 src/raspi/gpio.o
 .debug_abbrev  0x000000bc      0x1c5 src/raspi/irq.o
 .debug_abbrev  0x00000281      0x163 src/raspi/main.o
 .debug_abbrev  0x000003e4      0x1b1 src/raspi/mpu60x0.o
 .debug_abbrev  0x00000595       0x5d src/raspi/mpu60x0regs.o
 .debug_abbrev  0x000005f2      0x1b2 src/raspi/spi.o
 .debug_abbrev  0x000007a4       0x48 src/raspi/support.o
 .debug_abbrev  0x000007ec      0x14e src/raspi/uart.o
 .debug_abbrev  0x0000093a       0x9f /mnt/scratch/gnuarm/arm-none-eabi/lib//libc.a(lib_a-memset.o)
 .debug_abbrev  0x000009d9       0x14 /mnt/scratch/gnuarm/lib/gcc/arm-none-eabi/4.8.1/libgcc.a(_arm_addsubdf3.o)
 .debug_abbrev  0x000009ed       0x14 /mnt/scratch/gnuarm/lib/gcc/arm-none-eabi/4.8.1/libgcc.a(_arm_muldivdf3.o)

.debug_aranges  0x00000000      0x178
 .debug_aranges
                0x00000000       0x20 src/raspi/vectors.o
 .debug_aranges
                0x00000020       0x20 src/raspi/gpio.o
 .debug_aranges
                0x00000040       0x20 src/raspi/irq.o
 .debug_aranges
                0x00000060       0x20 src/raspi/main.o
 .debug_aranges
                0x00000080       0x20 src/raspi/mpu60x0.o
 .debug_aranges
                0x000000a0       0x18 src/raspi/mpu60x0regs.o
 .debug_aranges
                0x000000b8       0x20 src/raspi/spi.o
 .debug_aranges
                0x000000d8       0x20 src/raspi/support.o
 .debug_aranges
                0x000000f8       0x20 src/raspi/uart.o
 .debug_aranges
                0x00000118       0x20 /mnt/scratch/gnuarm/arm-none-eabi/lib//libc.a(lib_a-memset.o)
 .debug_aranges
                0x00000138       0x20 /mnt/scratch/gnuarm/lib/gcc/arm-none-eabi/4.8.1/libgcc.a(_arm_addsubdf3.o)
 .debug_aranges
                0x00000158       0x20 /mnt/scratch/gnuarm/lib/gcc/arm-none-eabi/4.8.1/libgcc.a(_arm_muldivdf3.o)

.debug_loc      0x00000000      0xaeb
 .debug_loc     0x00000000       0xd2 src/raspi/gpio.o
 .debug_loc     0x000000d2      0x2ab src/raspi/irq.o
 .debug_loc     0x0000037d       0x20 src/raspi/main.o
 .debug_loc     0x0000039d      0x214 src/raspi/mpu60x0.o
 .debug_loc     0x000005b1      0x1d3 src/raspi/spi.o
 .debug_loc     0x00000784       0x36 src/raspi/support.o
 .debug_loc     0x000007ba      0x1bc src/raspi/uart.o
 .debug_loc     0x00000976      0x175 /mnt/scratch/gnuarm/arm-none-eabi/lib//libc.a(lib_a-memset.o)

.debug_str      0x00000000      0x8a0
 .debug_str     0x00000000      0x15e src/raspi/gpio.o
                                0x16b (size before relaxing)
 .debug_str     0x0000015e      0x208 src/raspi/irq.o
                                0x2bc (size before relaxing)
 .debug_str     0x00000366      0x1cf src/raspi/main.o
                                0x38a (size before relaxing)
 .debug_str     0x00000535      0x1d8 src/raspi/mpu60x0.o
                                0x46b (size before relaxing)
 .debug_str     0x0000070d       0x18 src/raspi/mpu60x0regs.o
                                0x174 (size before relaxing)
 .debug_str     0x00000725       0x52 src/raspi/spi.o
                                0x22c (size before relaxing)
 .debug_str     0x00000777       0x1a src/raspi/support.o
                                 0x9c (size before relaxing)
 .debug_str     0x00000791       0x58 src/raspi/uart.o
                                0x206 (size before relaxing)
 .debug_str     0x000007e9       0xb7 /mnt/scratch/gnuarm/arm-none-eabi/lib//libc.a(lib_a-memset.o)
                                0x157 (size before relaxing)

.debug_frame    0x00000000      0x2b8
 .debug_frame   0x00000000       0x28 src/raspi/gpio.o
 .debug_frame   0x00000028       0x88 src/raspi/irq.o
 .debug_frame   0x000000b0       0x38 src/raspi/main.o
 .debug_frame   0x000000e8       0x60 src/raspi/mpu60x0.o
 .debug_frame   0x00000148       0x98 src/raspi/spi.o
 .debug_frame   0x000001e0       0x20 src/raspi/support.o
 .debug_frame   0x00000200       0x8c src/raspi/uart.o
 .debug_frame   0x0000028c       0x2c /mnt/scratch/gnuarm/arm-none-eabi/lib//libc.a(lib_a-memset.o)

.debug_ranges   0x00000000       0xf8
 .debug_ranges  0x00000000       0x38 src/raspi/irq.o
 .debug_ranges  0x00000038       0xa0 src/raspi/spi.o
 .debug_ranges  0x000000d8       0x20 src/raspi/uart.o
