
kernel.elf:     file format elf32-littlearm


Disassembly of section .text:

00008000 <_start>:
    8000:	ea07e00e 	b	200040 <reset>
	...
  200000:	e59ff018 	ldr	pc, [pc, #24]	; 200020 <reset_handler>
  200004:	e59ff018 	ldr	pc, [pc, #24]	; 200024 <undefined_handler>
  200008:	e59ff018 	ldr	pc, [pc, #24]	; 200028 <swi_handler>
  20000c:	e59ff018 	ldr	pc, [pc, #24]	; 20002c <prefetch_handler>
  200010:	e59ff018 	ldr	pc, [pc, #24]	; 200030 <data_handler>
  200014:	e59ff018 	ldr	pc, [pc, #24]	; 200034 <unused_handler>
  200018:	e59ff018 	ldr	pc, [pc, #24]	; 200038 <irq_handler>
  20001c:	e59ff018 	ldr	pc, [pc, #24]	; 20003c <fiq_handler>

00200020 <reset_handler>:
  200020:	00200040 	.word	0x00200040

00200024 <undefined_handler>:
  200024:	00200080 	.word	0x00200080

00200028 <swi_handler>:
  200028:	00200080 	.word	0x00200080

0020002c <prefetch_handler>:
  20002c:	00200080 	.word	0x00200080

00200030 <data_handler>:
  200030:	00200080 	.word	0x00200080

00200034 <unused_handler>:
  200034:	00200080 	.word	0x00200080

00200038 <irq_handler>:
  200038:	002000c4 	.word	0x002000c4

0020003c <fiq_handler>:
  20003c:	00200080 	.word	0x00200080

00200040 <reset>:
  200040:	e3a00602 	mov	r0, #2097152	; 0x200000
  200044:	e3a01000 	mov	r1, #0
  200048:	e8b003fc 	ldm	r0!, {r2, r3, r4, r5, r6, r7, r8, r9}
  20004c:	e8a103fc 	stmia	r1!, {r2, r3, r4, r5, r6, r7, r8, r9}
  200050:	e8b003fc 	ldm	r0!, {r2, r3, r4, r5, r6, r7, r8, r9}
  200054:	e8a103fc 	stmia	r1!, {r2, r3, r4, r5, r6, r7, r8, r9}
  200058:	e3a000d2 	mov	r0, #210	; 0xd2
  20005c:	e121f000 	msr	CPSR_c, r0
  200060:	e3a0d902 	mov	sp, #32768	; 0x8000
  200064:	e3a000d1 	mov	r0, #209	; 0xd1
  200068:	e121f000 	msr	CPSR_c, r0
  20006c:	e3a0d901 	mov	sp, #16384	; 0x4000
  200070:	e3a000d3 	mov	r0, #211	; 0xd3
  200074:	e121f000 	msr	CPSR_c, r0
  200078:	e3a0d302 	mov	sp, #134217728	; 0x8000000
  20007c:	eb0000bc 	bl	200374 <not_main>

00200080 <hang>:
  200080:	eafffffe 	b	200080 <hang>

00200084 <PUT32>:
  200084:	e5801000 	str	r1, [r0]
  200088:	e12fff1e 	bx	lr

0020008c <PUT16>:
  20008c:	e1c010b0 	strh	r1, [r0]
  200090:	e12fff1e 	bx	lr

00200094 <PUT8>:
  200094:	e5c01000 	strb	r1, [r0]
  200098:	e12fff1e 	bx	lr

0020009c <GET32>:
  20009c:	e5900000 	ldr	r0, [r0]
  2000a0:	e12fff1e 	bx	lr

002000a4 <GETPC>:
  2000a4:	e1a0000e 	mov	r0, lr
  2000a8:	e12fff1e 	bx	lr

002000ac <BRANCHTO>:
  2000ac:	e12fff10 	bx	r0

002000b0 <dummy>:
  2000b0:	e12fff1e 	bx	lr

002000b4 <enable_irq>:
  2000b4:	e10f0000 	mrs	r0, CPSR
  2000b8:	e3c00080 	bic	r0, r0, #128	; 0x80
  2000bc:	e121f000 	msr	CPSR_c, r0
  2000c0:	e12fff1e 	bx	lr

002000c4 <irq>:
  2000c4:	e92d5fff 	push	{r0, r1, r2, r3, r4, r5, r6, r7, r8, r9, sl, fp, ip, lr}
  2000c8:	eb000031 	bl	200194 <c_irq_handler>
  2000cc:	e8bd5fff 	pop	{r0, r1, r2, r3, r4, r5, r6, r7, r8, r9, sl, fp, ip, lr}
  2000d0:	e25ef004 	subs	pc, lr, #4

002000d4 <irq_gpio_falling_edge_en>:
  2000d4:	e3500035 	cmp	r0, #53	; 0x35
  2000d8:	e92d4008 	push	{r3, lr}
  2000dc:	ca000010 	bgt	200124 <irq_gpio_falling_edge_en+0x50>
  2000e0:	e1a03fc0 	asr	r3, r0, #31
  2000e4:	e3500000 	cmp	r0, #0
  2000e8:	e280201f 	add	r2, r0, #31
  2000ec:	e1a03da3 	lsr	r3, r3, #27
  2000f0:	e0801003 	add	r1, r0, r3
  2000f4:	b1a00002 	movlt	r0, r2
  2000f8:	e59f202c 	ldr	r2, [pc, #44]	; 20012c <irq_gpio_falling_edge_en+0x58>
  2000fc:	e201101f 	and	r1, r1, #31
  200100:	e5922000 	ldr	r2, [r2]
  200104:	e0633001 	rsb	r3, r3, r1
  200108:	e1a002c0 	asr	r0, r0, #5
  20010c:	e3a01001 	mov	r1, #1
  200110:	e0820200 	add	r0, r2, r0, lsl #4
  200114:	e1a01311 	lsl	r1, r1, r3
  200118:	ebffffd9 	bl	200084 <PUT32>
  20011c:	e3a00000 	mov	r0, #0
  200120:	e8bd8008 	pop	{r3, pc}
  200124:	e3e00000 	mvn	r0, #0
  200128:	e8bd8008 	pop	{r3, pc}
  20012c:	002088c0 	.word	0x002088c0

00200130 <enable_interrupt_for_irq>:
  200130:	e92d4008 	push	{r3, lr}
  200134:	e59f3054 	ldr	r3, [pc, #84]	; 200190 <enable_interrupt_for_irq+0x60>
  200138:	e5932004 	ldr	r2, [r3, #4]
  20013c:	e2422001 	sub	r2, r2, #1
  200140:	e1500002 	cmp	r0, r2
  200144:	8a00000f 	bhi	200188 <enable_interrupt_for_irq+0x58>
  200148:	e1a02fc0 	asr	r2, r0, #31
  20014c:	e1a02da2 	lsr	r2, r2, #27
  200150:	e280c01f 	add	ip, r0, #31
  200154:	e0801002 	add	r1, r0, r2
  200158:	e3500000 	cmp	r0, #0
  20015c:	e5933008 	ldr	r3, [r3, #8]
  200160:	b1a0000c 	movlt	r0, ip
  200164:	e201101f 	and	r1, r1, #31
  200168:	e0622001 	rsb	r2, r2, r1
  20016c:	e1a002c0 	asr	r0, r0, #5
  200170:	e3a01001 	mov	r1, #1
  200174:	e0830100 	add	r0, r3, r0, lsl #2
  200178:	e1a01211 	lsl	r1, r1, r2
  20017c:	ebffffc0 	bl	200084 <PUT32>
  200180:	e3a00000 	mov	r0, #0
  200184:	e8bd8008 	pop	{r3, pc}
  200188:	e3e00000 	mvn	r0, #0
  20018c:	e8bd8008 	pop	{r3, pc}
  200190:	002088c0 	.word	0x002088c0

00200194 <c_irq_handler>:
  200194:	e92d40f8 	push	{r3, r4, r5, r6, r7, lr}
  200198:	e59f60b4 	ldr	r6, [pc, #180]	; 200254 <c_irq_handler+0xc0>
  20019c:	e3a05001 	mov	r5, #1
  2001a0:	e596000c 	ldr	r0, [r6, #12]
  2001a4:	ebffffbc 	bl	20009c <GET32>
  2001a8:	e3500000 	cmp	r0, #0
  2001ac:	e59f70a4 	ldr	r7, [pc, #164]	; 200258 <c_irq_handler+0xc4>
  2001b0:	0a00000f 	beq	2001f4 <c_irq_handler+0x60>
  2001b4:	e3a04000 	mov	r4, #0
  2001b8:	e0103415 	ands	r3, r0, r5, lsl r4
  2001bc:	0a000005 	beq	2001d8 <c_irq_handler+0x44>
  2001c0:	e7973104 	ldr	r3, [r7, r4, lsl #2]
  2001c4:	e3530000 	cmp	r3, #0
  2001c8:	0a000002 	beq	2001d8 <c_irq_handler+0x44>
  2001cc:	e12fff33 	blx	r3
  2001d0:	e596000c 	ldr	r0, [r6, #12]
  2001d4:	ebffffb0 	bl	20009c <GET32>
  2001d8:	e2844001 	add	r4, r4, #1
  2001dc:	e3540020 	cmp	r4, #32
  2001e0:	1afffff4 	bne	2001b8 <c_irq_handler+0x24>
  2001e4:	e596000c 	ldr	r0, [r6, #12]
  2001e8:	ebffffab 	bl	20009c <GET32>
  2001ec:	e3500000 	cmp	r0, #0
  2001f0:	1affffef 	bne	2001b4 <c_irq_handler+0x20>
  2001f4:	e5960010 	ldr	r0, [r6, #16]
  2001f8:	ebffffa7 	bl	20009c <GET32>
  2001fc:	e3500000 	cmp	r0, #0
  200200:	e3a07001 	mov	r7, #1
  200204:	0a000011 	beq	200250 <c_irq_handler+0xbc>
  200208:	e59f5048 	ldr	r5, [pc, #72]	; 200258 <c_irq_handler+0xc4>
  20020c:	e3a04000 	mov	r4, #0
  200210:	e0103417 	ands	r3, r0, r7, lsl r4
  200214:	e2844001 	add	r4, r4, #1
  200218:	0a000005 	beq	200234 <c_irq_handler+0xa0>
  20021c:	e5953080 	ldr	r3, [r5, #128]	; 0x80
  200220:	e3530000 	cmp	r3, #0
  200224:	0a000002 	beq	200234 <c_irq_handler+0xa0>
  200228:	e12fff33 	blx	r3
  20022c:	e596000c 	ldr	r0, [r6, #12]
  200230:	ebffff99 	bl	20009c <GET32>
  200234:	e3540020 	cmp	r4, #32
  200238:	e2855004 	add	r5, r5, #4
  20023c:	1afffff3 	bne	200210 <c_irq_handler+0x7c>
  200240:	e5960010 	ldr	r0, [r6, #16]
  200244:	ebffff94 	bl	20009c <GET32>
  200248:	e3500000 	cmp	r0, #0
  20024c:	1affffed 	bne	200208 <c_irq_handler+0x74>
  200250:	e8bd80f8 	pop	{r3, r4, r5, r6, r7, pc}
  200254:	002088c0 	.word	0x002088c0
  200258:	00209234 	.word	0x00209234

0020025c <register_irq_handler>:
  20025c:	e59f302c 	ldr	r3, [pc, #44]	; 200290 <register_irq_handler+0x34>
  200260:	e5933004 	ldr	r3, [r3, #4]
  200264:	e1500003 	cmp	r0, r3
  200268:	8a000006 	bhi	200288 <register_irq_handler+0x2c>
  20026c:	e59f2020 	ldr	r2, [pc, #32]	; 200294 <register_irq_handler+0x38>
  200270:	e7923100 	ldr	r3, [r2, r0, lsl #2]
  200274:	e3530000 	cmp	r3, #0
  200278:	1a000002 	bne	200288 <register_irq_handler+0x2c>
  20027c:	e7821100 	str	r1, [r2, r0, lsl #2]
  200280:	e1a00003 	mov	r0, r3
  200284:	e12fff1e 	bx	lr
  200288:	e3e00000 	mvn	r0, #0
  20028c:	e12fff1e 	bx	lr
  200290:	002088c0 	.word	0x002088c0
  200294:	00209234 	.word	0x00209234

00200298 <c_enable_irq>:
  200298:	e92d4008 	push	{r3, lr}
  20029c:	e3a01000 	mov	r1, #0
  2002a0:	e3a02c01 	mov	r2, #256	; 0x100
  2002a4:	e59f0008 	ldr	r0, [pc, #8]	; 2002b4 <c_enable_irq+0x1c>
  2002a8:	eb000212 	bl	200af8 <memset>
  2002ac:	e8bd4008 	pop	{r3, lr}
  2002b0:	eaffff7f 	b	2000b4 <enable_irq>
  2002b4:	00209234 	.word	0x00209234

002002b8 <gpio_irq>:
  2002b8:	e59f3018 	ldr	r3, [pc, #24]	; 2002d8 <gpio_irq+0x20>
  2002bc:	e59f1018 	ldr	r1, [pc, #24]	; 2002dc <gpio_irq+0x24>
  2002c0:	e3e02000 	mvn	r2, #0
  2002c4:	e3a00001 	mov	r0, #1
  2002c8:	e5832040 	str	r2, [r3, #64]	; 0x40
  2002cc:	e5810000 	str	r0, [r1]
  2002d0:	e5832044 	str	r2, [r3, #68]	; 0x44
  2002d4:	e12fff1e 	bx	lr
  2002d8:	20200000 	.word	0x20200000
  2002dc:	002091f0 	.word	0x002091f0

002002e0 <GPIO_FSEL>:
  2002e0:	e3500009 	cmp	r0, #9
  2002e4:	e52d4004 	push	{r4}		; (str r4, [sp, #-4]!)
  2002e8:	959f3068 	ldrls	r3, [pc, #104]	; 200358 <GPIO_FSEL+0x78>
  2002ec:	9a00000c 	bls	200324 <GPIO_FSEL+0x44>
  2002f0:	e3500013 	cmp	r0, #19
  2002f4:	959f3060 	ldrls	r3, [pc, #96]	; 20035c <GPIO_FSEL+0x7c>
  2002f8:	9a000009 	bls	200324 <GPIO_FSEL+0x44>
  2002fc:	e350001d 	cmp	r0, #29
  200300:	959f3058 	ldrls	r3, [pc, #88]	; 200360 <GPIO_FSEL+0x80>
  200304:	9a000006 	bls	200324 <GPIO_FSEL+0x44>
  200308:	e3500027 	cmp	r0, #39	; 0x27
  20030c:	959f3050 	ldrls	r3, [pc, #80]	; 200364 <GPIO_FSEL+0x84>
  200310:	9a000003 	bls	200324 <GPIO_FSEL+0x44>
  200314:	e59f204c 	ldr	r2, [pc, #76]	; 200368 <GPIO_FSEL+0x88>
  200318:	e3500031 	cmp	r0, #49	; 0x31
  20031c:	e59f3048 	ldr	r3, [pc, #72]	; 20036c <GPIO_FSEL+0x8c>
  200320:	91a03002 	movls	r3, r2
  200324:	e59f2044 	ldr	r2, [pc, #68]	; 200370 <GPIO_FSEL+0x90>
  200328:	e593c000 	ldr	ip, [r3]
  20032c:	e0824092 	umull	r4, r2, r2, r0
  200330:	e1a021a2 	lsr	r2, r2, #3
  200334:	e0822102 	add	r2, r2, r2, lsl #2
  200338:	e0400082 	sub	r0, r0, r2, lsl #1
  20033c:	e0800080 	add	r0, r0, r0, lsl #1
  200340:	e3a02007 	mov	r2, #7
  200344:	e1cc2012 	bic	r2, ip, r2, lsl r0
  200348:	e1820011 	orr	r0, r2, r1, lsl r0
  20034c:	e5830000 	str	r0, [r3]
  200350:	e8bd0010 	pop	{r4}
  200354:	e12fff1e 	bx	lr
  200358:	20200000 	.word	0x20200000
  20035c:	20200004 	.word	0x20200004
  200360:	20200008 	.word	0x20200008
  200364:	2020000c 	.word	0x2020000c
  200368:	20200010 	.word	0x20200010
  20036c:	20200014 	.word	0x20200014
  200370:	cccccccd 	.word	0xcccccccd

00200374 <not_main>:
  200374:	e92d40f0 	push	{r4, r5, r6, r7, lr}
  200378:	e24dd0dc 	sub	sp, sp, #220	; 0xdc
  20037c:	eb00016e 	bl	20093c <uart_init>
  200380:	eb0000f7 	bl	200764 <spi_pin_init>
  200384:	e28d0034 	add	r0, sp, #52	; 0x34
  200388:	eb00004d 	bl	2004c4 <mpu60x0_init>
  20038c:	e59f3104 	ldr	r3, [pc, #260]	; 200498 <not_main+0x124>
  200390:	e59f4104 	ldr	r4, [pc, #260]	; 20049c <not_main+0x128>
  200394:	e5932004 	ldr	r2, [r3, #4]
  200398:	e3a00011 	mov	r0, #17
  20039c:	e3c22707 	bic	r2, r2, #1835008	; 0x1c0000
  2003a0:	e3822701 	orr	r2, r2, #262144	; 0x40000
  2003a4:	e5832004 	str	r2, [r3, #4]
  2003a8:	e3a01000 	mov	r1, #0
  2003ac:	e59f70ec 	ldr	r7, [pc, #236]	; 2004a0 <not_main+0x12c>
  2003b0:	ebffffca 	bl	2002e0 <GPIO_FSEL>
  2003b4:	e59f60e8 	ldr	r6, [pc, #232]	; 2004a4 <not_main+0x130>
  2003b8:	ebffffb6 	bl	200298 <c_enable_irq>
  2003bc:	e5940000 	ldr	r0, [r4]
  2003c0:	e59f10e0 	ldr	r1, [pc, #224]	; 2004a8 <not_main+0x134>
  2003c4:	ebffffa4 	bl	20025c <register_irq_handler>
  2003c8:	e59f50dc 	ldr	r5, [pc, #220]	; 2004ac <not_main+0x138>
  2003cc:	e59f10d4 	ldr	r1, [pc, #212]	; 2004a8 <not_main+0x134>
  2003d0:	e5970000 	ldr	r0, [r7]
  2003d4:	ebffffa0 	bl	20025c <register_irq_handler>
  2003d8:	e5960000 	ldr	r0, [r6]
  2003dc:	e59f10c4 	ldr	r1, [pc, #196]	; 2004a8 <not_main+0x134>
  2003e0:	ebffff9d 	bl	20025c <register_irq_handler>
  2003e4:	e59f10bc 	ldr	r1, [pc, #188]	; 2004a8 <not_main+0x134>
  2003e8:	e5950000 	ldr	r0, [r5]
  2003ec:	ebffff9a 	bl	20025c <register_irq_handler>
  2003f0:	e3a00011 	mov	r0, #17
  2003f4:	ebffff36 	bl	2000d4 <irq_gpio_falling_edge_en>
  2003f8:	e5940000 	ldr	r0, [r4]
  2003fc:	ebffff4b 	bl	200130 <enable_interrupt_for_irq>
  200400:	e5970000 	ldr	r0, [r7]
  200404:	e59f40a4 	ldr	r4, [pc, #164]	; 2004b0 <not_main+0x13c>
  200408:	ebffff48 	bl	200130 <enable_interrupt_for_irq>
  20040c:	e5960000 	ldr	r0, [r6]
  200410:	ebffff46 	bl	200130 <enable_interrupt_for_irq>
  200414:	e5950000 	ldr	r0, [r5]
  200418:	e3a05000 	mov	r5, #0
  20041c:	ebffff43 	bl	200130 <enable_interrupt_for_irq>
  200420:	e1a06004 	mov	r6, r4
  200424:	e5845000 	str	r5, [r4]
  200428:	e3a00001 	mov	r0, #1
  20042c:	eb00013b 	bl	200920 <wait>
  200430:	e5943000 	ldr	r3, [r4]
  200434:	e3530000 	cmp	r3, #0
  200438:	0afffffa 	beq	200428 <not_main+0xb4>
  20043c:	e59d0034 	ldr	r0, [sp, #52]	; 0x34
  200440:	e28d1038 	add	r1, sp, #56	; 0x38
  200444:	e5865000 	str	r5, [r6]
  200448:	eb000046 	bl	200568 <mpu60x0_get_reading>
  20044c:	e1cd24d0 	ldrd	r2, [sp, #64]	; 0x40
  200450:	e28d0074 	add	r0, sp, #116	; 0x74
  200454:	e1cd20f0 	strd	r2, [sp]
  200458:	e1cd24d8 	ldrd	r2, [sp, #72]	; 0x48
  20045c:	e59f1050 	ldr	r1, [pc, #80]	; 2004b4 <not_main+0x140>
  200460:	e1cd20f8 	strd	r2, [sp, #8]
  200464:	e1cd25d0 	ldrd	r2, [sp, #80]	; 0x50
  200468:	e1cd21f0 	strd	r2, [sp, #16]
  20046c:	e1cd25d8 	ldrd	r2, [sp, #88]	; 0x58
  200470:	e1cd21f8 	strd	r2, [sp, #24]
  200474:	e1cd26d0 	ldrd	r2, [sp, #96]	; 0x60
  200478:	e1cd22f0 	strd	r2, [sp, #32]
  20047c:	e1cd26d8 	ldrd	r2, [sp, #104]	; 0x68
  200480:	e1cd22f8 	strd	r2, [sp, #40]	; 0x28
  200484:	e1cd23d8 	ldrd	r2, [sp, #56]	; 0x38
  200488:	eb0001f1 	bl	200c54 <sprintf>
  20048c:	e28d0074 	add	r0, sp, #116	; 0x74
  200490:	eb00018e 	bl	200ad0 <uart_puts>
  200494:	eaffffe3 	b	200428 <not_main+0xb4>
  200498:	20200000 	.word	0x20200000
  20049c:	002088e0 	.word	0x002088e0
  2004a0:	002088dc 	.word	0x002088dc
  2004a4:	002088d8 	.word	0x002088d8
  2004a8:	002002b8 	.word	0x002002b8
  2004ac:	002088d4 	.word	0x002088d4
  2004b0:	002091f0 	.word	0x002091f0
  2004b4:	002087f8 	.word	0x002087f8

002004b8 <mpu60x0_enable_interrupt>:
  2004b8:	e3a00038 	mov	r0, #56	; 0x38
  2004bc:	e3a01001 	mov	r1, #1
  2004c0:	ea0000e4 	b	200858 <spi_write>

002004c4 <mpu60x0_init>:
  2004c4:	e92d4070 	push	{r4, r5, r6, lr}
  2004c8:	e59f5094 	ldr	r5, [pc, #148]	; 200564 <mpu60x0_init+0xa0>
  2004cc:	e3a01080 	mov	r1, #128	; 0x80
  2004d0:	e1a04000 	mov	r4, r0
  2004d4:	e3a0006b 	mov	r0, #107	; 0x6b
  2004d8:	eb0000de 	bl	200858 <spi_write>
  2004dc:	e1a00005 	mov	r0, r5
  2004e0:	eb00010e 	bl	200920 <wait>
  2004e4:	e3a00075 	mov	r0, #117	; 0x75
  2004e8:	eb0000ef 	bl	2008ac <spi_read>
  2004ec:	e1a06000 	mov	r6, r0
  2004f0:	e1a00005 	mov	r0, r5
  2004f4:	eb000109 	bl	200920 <wait>
  2004f8:	e3a0006a 	mov	r0, #106	; 0x6a
  2004fc:	e3a01007 	mov	r1, #7
  200500:	eb0000d4 	bl	200858 <spi_write>
  200504:	e3a0006b 	mov	r0, #107	; 0x6b
  200508:	e3a01003 	mov	r1, #3
  20050c:	eb0000d1 	bl	200858 <spi_write>
  200510:	e3a0006a 	mov	r0, #106	; 0x6a
  200514:	e3a01010 	mov	r1, #16
  200518:	eb0000ce 	bl	200858 <spi_write>
  20051c:	e3a0001a 	mov	r0, #26
  200520:	e3a01003 	mov	r1, #3
  200524:	eb0000cb 	bl	200858 <spi_write>
  200528:	e3a03003 	mov	r3, #3
  20052c:	e1a01003 	mov	r1, r3
  200530:	e5c43000 	strb	r3, [r4]
  200534:	e3a0001b 	mov	r0, #27
  200538:	eb0000c6 	bl	200858 <spi_write>
  20053c:	e3a03000 	mov	r3, #0
  200540:	e1a01003 	mov	r1, r3
  200544:	e5c43001 	strb	r3, [r4, #1]
  200548:	e3a0001c 	mov	r0, #28
  20054c:	eb0000c1 	bl	200858 <spi_write>
  200550:	ebffffd8 	bl	2004b8 <mpu60x0_enable_interrupt>
  200554:	e2563068 	subs	r3, r6, #104	; 0x68
  200558:	e2730000 	rsbs	r0, r3, #0
  20055c:	e0b00003 	adcs	r0, r0, r3
  200560:	e8bd8070 	pop	{r4, r5, r6, pc}
  200564:	00013880 	.word	0x00013880

00200568 <mpu60x0_get_reading>:
  200568:	e92d41f0 	push	{r4, r5, r6, r7, r8, lr}
  20056c:	e24dd008 	sub	sp, sp, #8
  200570:	e1a06001 	mov	r6, r1
  200574:	e6ff4070 	uxth	r4, r0
  200578:	e6ef7070 	uxtb	r7, r0
  20057c:	e1cd00b4 	strh	r0, [sp, #4]
  200580:	eb00008a 	bl	2007b0 <spi_begin>
  200584:	e3a000bb 	mov	r0, #187	; 0xbb
  200588:	eb000094 	bl	2007e0 <spi_transfer>
  20058c:	e3a00000 	mov	r0, #0
  200590:	eb000092 	bl	2007e0 <spi_transfer>
  200594:	e1a05000 	mov	r5, r0
  200598:	e3a00000 	mov	r0, #0
  20059c:	eb00008f 	bl	2007e0 <spi_transfer>
  2005a0:	e6ef5075 	uxtb	r5, r5
  2005a4:	e6ef0070 	uxtb	r0, r0
  2005a8:	e59f31a0 	ldr	r3, [pc, #416]	; 200750 <mpu60x0_get_reading+0x1e8>
  2005ac:	e1800405 	orr	r0, r0, r5, lsl #8
  2005b0:	e1a04424 	lsr	r4, r4, #8
  2005b4:	e1a04184 	lsl	r4, r4, #3
  2005b8:	e6bf0070 	sxth	r0, r0
  2005bc:	e18440d3 	ldrd	r4, [r4, r3]
  2005c0:	eb001e57 	bl	207f24 <__aeabi_i2d>
  2005c4:	e1a02004 	mov	r2, r4
  2005c8:	e1a03005 	mov	r3, r5
  2005cc:	eb001f2f 	bl	208290 <__aeabi_ddiv>
  2005d0:	e1c600f0 	strd	r0, [r6]
  2005d4:	e3a00000 	mov	r0, #0
  2005d8:	eb000080 	bl	2007e0 <spi_transfer>
  2005dc:	e1a08000 	mov	r8, r0
  2005e0:	e3a00000 	mov	r0, #0
  2005e4:	eb00007d 	bl	2007e0 <spi_transfer>
  2005e8:	e6ef8078 	uxtb	r8, r8
  2005ec:	e6ef0070 	uxtb	r0, r0
  2005f0:	e1800408 	orr	r0, r0, r8, lsl #8
  2005f4:	e6bf0070 	sxth	r0, r0
  2005f8:	eb001e49 	bl	207f24 <__aeabi_i2d>
  2005fc:	e1a02004 	mov	r2, r4
  200600:	e1a03005 	mov	r3, r5
  200604:	eb001f21 	bl	208290 <__aeabi_ddiv>
  200608:	e1c600f8 	strd	r0, [r6, #8]
  20060c:	e3a00000 	mov	r0, #0
  200610:	eb000072 	bl	2007e0 <spi_transfer>
  200614:	e1a08000 	mov	r8, r0
  200618:	e3a00000 	mov	r0, #0
  20061c:	eb00006f 	bl	2007e0 <spi_transfer>
  200620:	e6ef8078 	uxtb	r8, r8
  200624:	e6ef0070 	uxtb	r0, r0
  200628:	e1800408 	orr	r0, r0, r8, lsl #8
  20062c:	e6bf0070 	sxth	r0, r0
  200630:	eb001e3b 	bl	207f24 <__aeabi_i2d>
  200634:	e1a02004 	mov	r2, r4
  200638:	e1a03005 	mov	r3, r5
  20063c:	eb001f13 	bl	208290 <__aeabi_ddiv>
  200640:	e1c601f0 	strd	r0, [r6, #16]
  200644:	e3a00000 	mov	r0, #0
  200648:	eb000064 	bl	2007e0 <spi_transfer>
  20064c:	e1a04000 	mov	r4, r0
  200650:	e3a00000 	mov	r0, #0
  200654:	eb000061 	bl	2007e0 <spi_transfer>
  200658:	e6ef4074 	uxtb	r4, r4
  20065c:	e6ef0070 	uxtb	r0, r0
  200660:	e1804404 	orr	r4, r0, r4, lsl #8
  200664:	e59f00e8 	ldr	r0, [pc, #232]	; 200754 <mpu60x0_get_reading+0x1ec>
  200668:	e6bf3074 	sxth	r3, r4
  20066c:	e0c02390 	smull	r2, r0, r0, r3
  200670:	e1a03fc3 	asr	r3, r3, #31
  200674:	e06303c0 	rsb	r0, r3, r0, asr #7
  200678:	e6bf0070 	sxth	r0, r0
  20067c:	eb001e28 	bl	207f24 <__aeabi_i2d>
  200680:	e59f20d0 	ldr	r2, [pc, #208]	; 200758 <mpu60x0_get_reading+0x1f0>
  200684:	e59f30d0 	ldr	r3, [pc, #208]	; 20075c <mpu60x0_get_reading+0x1f4>
  200688:	eb001d58 	bl	207bf0 <__adddf3>
  20068c:	e1c601f8 	strd	r0, [r6, #24]
  200690:	e3a00000 	mov	r0, #0
  200694:	eb000051 	bl	2007e0 <spi_transfer>
  200698:	e1a04000 	mov	r4, r0
  20069c:	e3a00000 	mov	r0, #0
  2006a0:	eb00004e 	bl	2007e0 <spi_transfer>
  2006a4:	e6ef4074 	uxtb	r4, r4
  2006a8:	e6ef0070 	uxtb	r0, r0
  2006ac:	e59f30ac 	ldr	r3, [pc, #172]	; 200760 <mpu60x0_get_reading+0x1f8>
  2006b0:	e1800404 	orr	r0, r0, r4, lsl #8
  2006b4:	e1a07187 	lsl	r7, r7, #3
  2006b8:	e6bf0070 	sxth	r0, r0
  2006bc:	e18340d7 	ldrd	r4, [r3, r7]
  2006c0:	eb001e17 	bl	207f24 <__aeabi_i2d>
  2006c4:	e1a02004 	mov	r2, r4
  2006c8:	e1a03005 	mov	r3, r5
  2006cc:	eb001eef 	bl	208290 <__aeabi_ddiv>
  2006d0:	e1c602f0 	strd	r0, [r6, #32]
  2006d4:	e3a00000 	mov	r0, #0
  2006d8:	eb000040 	bl	2007e0 <spi_transfer>
  2006dc:	e1a07000 	mov	r7, r0
  2006e0:	e3a00000 	mov	r0, #0
  2006e4:	eb00003d 	bl	2007e0 <spi_transfer>
  2006e8:	e6ef7077 	uxtb	r7, r7
  2006ec:	e6ef0070 	uxtb	r0, r0
  2006f0:	e1800407 	orr	r0, r0, r7, lsl #8
  2006f4:	e6bf0070 	sxth	r0, r0
  2006f8:	eb001e09 	bl	207f24 <__aeabi_i2d>
  2006fc:	e1a02004 	mov	r2, r4
  200700:	e1a03005 	mov	r3, r5
  200704:	eb001ee1 	bl	208290 <__aeabi_ddiv>
  200708:	e1c602f8 	strd	r0, [r6, #40]	; 0x28
  20070c:	e3a00000 	mov	r0, #0
  200710:	eb000032 	bl	2007e0 <spi_transfer>
  200714:	e1a07000 	mov	r7, r0
  200718:	e3a00000 	mov	r0, #0
  20071c:	eb00002f 	bl	2007e0 <spi_transfer>
  200720:	e6ef7077 	uxtb	r7, r7
  200724:	e6ef0070 	uxtb	r0, r0
  200728:	e1800407 	orr	r0, r0, r7, lsl #8
  20072c:	e6bf0070 	sxth	r0, r0
  200730:	eb001dfb 	bl	207f24 <__aeabi_i2d>
  200734:	e1a02004 	mov	r2, r4
  200738:	e1a03005 	mov	r3, r5
  20073c:	eb001ed3 	bl	208290 <__aeabi_ddiv>
  200740:	e1c603f0 	strd	r0, [r6, #48]	; 0x30
  200744:	e28dd008 	add	sp, sp, #8
  200748:	e8bd41f0 	pop	{r4, r5, r6, r7, r8, lr}
  20074c:	ea00006c 	b	200904 <spi_end>
  200750:	00208668 	.word	0x00208668
  200754:	60606061 	.word	0x60606061
  200758:	0a3d70a4 	.word	0x0a3d70a4
  20075c:	404243d7 	.word	0x404243d7
  200760:	00208648 	.word	0x00208648

00200764 <spi_pin_init>:
  200764:	e59f3040 	ldr	r3, [pc, #64]	; 2007ac <spi_pin_init+0x48>
  200768:	e8930006 	ldm	r3, {r1, r2}
  20076c:	e591c000 	ldr	ip, [r1]
  200770:	e5930008 	ldr	r0, [r3, #8]
  200774:	e3ccc03f 	bic	ip, ip, #63	; 0x3f
  200778:	e38cc024 	orr	ip, ip, #36	; 0x24
  20077c:	e581c000 	str	ip, [r1]
  200780:	e5921000 	ldr	r1, [r2]
  200784:	e593300c 	ldr	r3, [r3, #12]
  200788:	e3c115ff 	bic	r1, r1, #1069547520	; 0x3fc00000
  20078c:	e3c11602 	bic	r1, r1, #2097152	; 0x200000
  200790:	e3811592 	orr	r1, r1, #612368384	; 0x24800000
  200794:	e5821000 	str	r1, [r2]
  200798:	e3a02000 	mov	r2, #0
  20079c:	e5802000 	str	r2, [r0]
  2007a0:	e3a02c01 	mov	r2, #256	; 0x100
  2007a4:	e5832000 	str	r2, [r3]
  2007a8:	e12fff1e 	bx	lr
  2007ac:	00208900 	.word	0x00208900

002007b0 <spi_begin>:
  2007b0:	e59f3024 	ldr	r3, [pc, #36]	; 2007dc <spi_begin+0x2c>
  2007b4:	e5933008 	ldr	r3, [r3, #8]
  2007b8:	e5932000 	ldr	r2, [r3]
  2007bc:	e3822030 	orr	r2, r2, #48	; 0x30
  2007c0:	e5832000 	str	r2, [r3]
  2007c4:	e5932000 	ldr	r2, [r3]
  2007c8:	e3c22602 	bic	r2, r2, #2097152	; 0x200000
  2007cc:	e3c22003 	bic	r2, r2, #3
  2007d0:	e382208c 	orr	r2, r2, #140	; 0x8c
  2007d4:	e5832000 	str	r2, [r3]
  2007d8:	e12fff1e 	bx	lr
  2007dc:	00208900 	.word	0x00208900

002007e0 <spi_transfer>:
  2007e0:	e92d4038 	push	{r3, r4, r5, lr}
  2007e4:	e59f4068 	ldr	r4, [pc, #104]	; 200854 <spi_transfer+0x74>
  2007e8:	e1a05000 	mov	r5, r0
  2007ec:	e5943008 	ldr	r3, [r4, #8]
  2007f0:	e5932000 	ldr	r2, [r3]
  2007f4:	e5932000 	ldr	r2, [r3]
  2007f8:	e3120701 	tst	r2, #262144	; 0x40000
  2007fc:	1a000005 	bne	200818 <spi_transfer+0x38>
  200800:	e3a00064 	mov	r0, #100	; 0x64
  200804:	eb000045 	bl	200920 <wait>
  200808:	e5943008 	ldr	r3, [r4, #8]
  20080c:	e5932000 	ldr	r2, [r3]
  200810:	e3120701 	tst	r2, #262144	; 0x40000
  200814:	0afffff9 	beq	200800 <spi_transfer+0x20>
  200818:	e5942010 	ldr	r2, [r4, #16]
  20081c:	e5825000 	str	r5, [r2]
  200820:	e5933000 	ldr	r3, [r3]
  200824:	e3130801 	tst	r3, #65536	; 0x10000
  200828:	1a000007 	bne	20084c <spi_transfer+0x6c>
  20082c:	e3a00064 	mov	r0, #100	; 0x64
  200830:	eb00003a 	bl	200920 <wait>
  200834:	e5943008 	ldr	r3, [r4, #8]
  200838:	e5933000 	ldr	r3, [r3]
  20083c:	e3130801 	tst	r3, #65536	; 0x10000
  200840:	0afffff9 	beq	20082c <spi_transfer+0x4c>
  200844:	e59f3008 	ldr	r3, [pc, #8]	; 200854 <spi_transfer+0x74>
  200848:	e5932010 	ldr	r2, [r3, #16]
  20084c:	e5920000 	ldr	r0, [r2]
  200850:	e8bd8038 	pop	{r3, r4, r5, pc}
  200854:	00208900 	.word	0x00208900

00200858 <spi_write>:
  200858:	e92d4038 	push	{r3, r4, r5, lr}
  20085c:	e59f4044 	ldr	r4, [pc, #68]	; 2008a8 <spi_write+0x50>
  200860:	e1a05001 	mov	r5, r1
  200864:	e5943008 	ldr	r3, [r4, #8]
  200868:	e5932000 	ldr	r2, [r3]
  20086c:	e3822030 	orr	r2, r2, #48	; 0x30
  200870:	e5832000 	str	r2, [r3]
  200874:	e5932000 	ldr	r2, [r3]
  200878:	e3c22602 	bic	r2, r2, #2097152	; 0x200000
  20087c:	e3c22003 	bic	r2, r2, #3
  200880:	e382208c 	orr	r2, r2, #140	; 0x8c
  200884:	e5832000 	str	r2, [r3]
  200888:	ebffffd4 	bl	2007e0 <spi_transfer>
  20088c:	e1a00005 	mov	r0, r5
  200890:	ebffffd2 	bl	2007e0 <spi_transfer>
  200894:	e5943008 	ldr	r3, [r4, #8]
  200898:	e5932000 	ldr	r2, [r3]
  20089c:	e3c22080 	bic	r2, r2, #128	; 0x80
  2008a0:	e5832000 	str	r2, [r3]
  2008a4:	e8bd8038 	pop	{r3, r4, r5, pc}
  2008a8:	00208900 	.word	0x00208900

002008ac <spi_read>:
  2008ac:	e92d4010 	push	{r4, lr}
  2008b0:	e59f4048 	ldr	r4, [pc, #72]	; 200900 <spi_read+0x54>
  2008b4:	e3800080 	orr	r0, r0, #128	; 0x80
  2008b8:	e5943008 	ldr	r3, [r4, #8]
  2008bc:	e5932000 	ldr	r2, [r3]
  2008c0:	e3822030 	orr	r2, r2, #48	; 0x30
  2008c4:	e5832000 	str	r2, [r3]
  2008c8:	e5932000 	ldr	r2, [r3]
  2008cc:	e3c22602 	bic	r2, r2, #2097152	; 0x200000
  2008d0:	e3c22003 	bic	r2, r2, #3
  2008d4:	e382208c 	orr	r2, r2, #140	; 0x8c
  2008d8:	e5832000 	str	r2, [r3]
  2008dc:	ebffffbf 	bl	2007e0 <spi_transfer>
  2008e0:	e3a00000 	mov	r0, #0
  2008e4:	ebffffbd 	bl	2007e0 <spi_transfer>
  2008e8:	e5943008 	ldr	r3, [r4, #8]
  2008ec:	e6ef0070 	uxtb	r0, r0
  2008f0:	e5932000 	ldr	r2, [r3]
  2008f4:	e3c22080 	bic	r2, r2, #128	; 0x80
  2008f8:	e5832000 	str	r2, [r3]
  2008fc:	e8bd8010 	pop	{r4, pc}
  200900:	00208900 	.word	0x00208900

00200904 <spi_end>:
  200904:	e59f3010 	ldr	r3, [pc, #16]	; 20091c <spi_end+0x18>
  200908:	e5933008 	ldr	r3, [r3, #8]
  20090c:	e5932000 	ldr	r2, [r3]
  200910:	e3c22080 	bic	r2, r2, #128	; 0x80
  200914:	e5832000 	str	r2, [r3]
  200918:	e12fff1e 	bx	lr
  20091c:	00208900 	.word	0x00208900

00200920 <wait>:
  200920:	e3500000 	cmp	r0, #0
  200924:	e2400001 	sub	r0, r0, #1
  200928:	012fff1e 	bxeq	lr
  20092c:	e1a00000 	nop			; (mov r0, r0)
  200930:	e2500001 	subs	r0, r0, #1
  200934:	2afffffc 	bcs	20092c <wait+0xc>
  200938:	e12fff1e 	bx	lr

0020093c <uart_init>:
  20093c:	e92d4010 	push	{r4, lr}
  200940:	e59f00ec 	ldr	r0, [pc, #236]	; 200a34 <uart_init+0xf8>
  200944:	e3a01001 	mov	r1, #1
  200948:	ebfffdcd 	bl	200084 <PUT32>
  20094c:	e59f00e4 	ldr	r0, [pc, #228]	; 200a38 <uart_init+0xfc>
  200950:	e3a01000 	mov	r1, #0
  200954:	ebfffdca 	bl	200084 <PUT32>
  200958:	e59f00dc 	ldr	r0, [pc, #220]	; 200a3c <uart_init+0x100>
  20095c:	e3a01000 	mov	r1, #0
  200960:	ebfffdc7 	bl	200084 <PUT32>
  200964:	e59f00d4 	ldr	r0, [pc, #212]	; 200a40 <uart_init+0x104>
  200968:	e3a01003 	mov	r1, #3
  20096c:	ebfffdc4 	bl	200084 <PUT32>
  200970:	e59f00cc 	ldr	r0, [pc, #204]	; 200a44 <uart_init+0x108>
  200974:	e3a01000 	mov	r1, #0
  200978:	ebfffdc1 	bl	200084 <PUT32>
  20097c:	e59f00b4 	ldr	r0, [pc, #180]	; 200a38 <uart_init+0xfc>
  200980:	e3a01000 	mov	r1, #0
  200984:	ebfffdbe 	bl	200084 <PUT32>
  200988:	e59f00b8 	ldr	r0, [pc, #184]	; 200a48 <uart_init+0x10c>
  20098c:	e3a010c6 	mov	r1, #198	; 0xc6
  200990:	ebfffdbb 	bl	200084 <PUT32>
  200994:	e59f10b0 	ldr	r1, [pc, #176]	; 200a4c <uart_init+0x110>
  200998:	e59f00b0 	ldr	r0, [pc, #176]	; 200a50 <uart_init+0x114>
  20099c:	ebfffdb8 	bl	200084 <PUT32>
  2009a0:	e59f00ac 	ldr	r0, [pc, #172]	; 200a54 <uart_init+0x118>
  2009a4:	ebfffdbc 	bl	20009c <GET32>
  2009a8:	e3c01a07 	bic	r1, r0, #28672	; 0x7000
  2009ac:	e3811a02 	orr	r1, r1, #8192	; 0x2000
  2009b0:	e59f009c 	ldr	r0, [pc, #156]	; 200a54 <uart_init+0x118>
  2009b4:	ebfffdb2 	bl	200084 <PUT32>
  2009b8:	e59f0094 	ldr	r0, [pc, #148]	; 200a54 <uart_init+0x118>
  2009bc:	ebfffdb6 	bl	20009c <GET32>
  2009c0:	e3c0190e 	bic	r1, r0, #229376	; 0x38000
  2009c4:	e3811801 	orr	r1, r1, #65536	; 0x10000
  2009c8:	e59f0084 	ldr	r0, [pc, #132]	; 200a54 <uart_init+0x118>
  2009cc:	ebfffdac 	bl	200084 <PUT32>
  2009d0:	e59f0080 	ldr	r0, [pc, #128]	; 200a58 <uart_init+0x11c>
  2009d4:	e3a01000 	mov	r1, #0
  2009d8:	ebfffda9 	bl	200084 <PUT32>
  2009dc:	e3a04000 	mov	r4, #0
  2009e0:	e1a00004 	mov	r0, r4
  2009e4:	e2844001 	add	r4, r4, #1
  2009e8:	ebfffdb0 	bl	2000b0 <dummy>
  2009ec:	e3540096 	cmp	r4, #150	; 0x96
  2009f0:	1afffffa 	bne	2009e0 <uart_init+0xa4>
  2009f4:	e59f0060 	ldr	r0, [pc, #96]	; 200a5c <uart_init+0x120>
  2009f8:	e3a01903 	mov	r1, #49152	; 0xc000
  2009fc:	ebfffda0 	bl	200084 <PUT32>
  200a00:	e3a04000 	mov	r4, #0
  200a04:	e1a00004 	mov	r0, r4
  200a08:	e2844001 	add	r4, r4, #1
  200a0c:	ebfffda7 	bl	2000b0 <dummy>
  200a10:	e3540096 	cmp	r4, #150	; 0x96
  200a14:	1afffffa 	bne	200a04 <uart_init+0xc8>
  200a18:	e59f003c 	ldr	r0, [pc, #60]	; 200a5c <uart_init+0x120>
  200a1c:	e3a01000 	mov	r1, #0
  200a20:	ebfffd97 	bl	200084 <PUT32>
  200a24:	e59f0010 	ldr	r0, [pc, #16]	; 200a3c <uart_init+0x100>
  200a28:	e3a01003 	mov	r1, #3
  200a2c:	e8bd4010 	pop	{r4, lr}
  200a30:	eafffd93 	b	200084 <PUT32>
  200a34:	20215004 	.word	0x20215004
  200a38:	20215044 	.word	0x20215044
  200a3c:	20215060 	.word	0x20215060
  200a40:	2021504c 	.word	0x2021504c
  200a44:	20215050 	.word	0x20215050
  200a48:	20215048 	.word	0x20215048
  200a4c:	0000010e 	.word	0x0000010e
  200a50:	20215068 	.word	0x20215068
  200a54:	20200004 	.word	0x20200004
  200a58:	20200094 	.word	0x20200094
  200a5c:	20200098 	.word	0x20200098

00200a60 <uart_putc>:
  200a60:	e92d4010 	push	{r4, lr}
  200a64:	e1a04000 	mov	r4, r0
  200a68:	e59f0018 	ldr	r0, [pc, #24]	; 200a88 <uart_putc+0x28>
  200a6c:	ebfffd8a 	bl	20009c <GET32>
  200a70:	e3100020 	tst	r0, #32
  200a74:	0afffffb 	beq	200a68 <uart_putc+0x8>
  200a78:	e59f000c 	ldr	r0, [pc, #12]	; 200a8c <uart_putc+0x2c>
  200a7c:	e1a01004 	mov	r1, r4
  200a80:	e8bd4010 	pop	{r4, lr}
  200a84:	eafffd7e 	b	200084 <PUT32>
  200a88:	20215054 	.word	0x20215054
  200a8c:	20215040 	.word	0x20215040

00200a90 <uart_getc>:
  200a90:	e92d4010 	push	{r4, lr}
  200a94:	e1a04000 	mov	r4, r0
  200a98:	e59f0028 	ldr	r0, [pc, #40]	; 200ac8 <uart_getc+0x38>
  200a9c:	ebfffd7e 	bl	20009c <GET32>
  200aa0:	e3100001 	tst	r0, #1
  200aa4:	0a000005 	beq	200ac0 <uart_getc+0x30>
  200aa8:	e59f001c 	ldr	r0, [pc, #28]	; 200acc <uart_getc+0x3c>
  200aac:	ebfffd7a 	bl	20009c <GET32>
  200ab0:	e3a03000 	mov	r3, #0
  200ab4:	e5c40000 	strb	r0, [r4]
  200ab8:	e1a00003 	mov	r0, r3
  200abc:	e8bd8010 	pop	{r4, pc}
  200ac0:	e3e03000 	mvn	r3, #0
  200ac4:	eafffffb 	b	200ab8 <uart_getc+0x28>
  200ac8:	20215054 	.word	0x20215054
  200acc:	20215040 	.word	0x20215040

00200ad0 <uart_puts>:
  200ad0:	e92d4010 	push	{r4, lr}
  200ad4:	e1a04000 	mov	r4, r0
  200ad8:	e5d00000 	ldrb	r0, [r0]
  200adc:	e3500000 	cmp	r0, #0
  200ae0:	08bd8010 	popeq	{r4, pc}
  200ae4:	ebffffdd 	bl	200a60 <uart_putc>
  200ae8:	e5f40001 	ldrb	r0, [r4, #1]!
  200aec:	e3500000 	cmp	r0, #0
  200af0:	1afffffb 	bne	200ae4 <uart_puts+0x14>
  200af4:	e8bd8010 	pop	{r4, pc}

00200af8 <memset>:
  200af8:	e3100003 	tst	r0, #3
  200afc:	e92d0070 	push	{r4, r5, r6}
  200b00:	0a000037 	beq	200be4 <memset+0xec>
  200b04:	e3520000 	cmp	r2, #0
  200b08:	e2422001 	sub	r2, r2, #1
  200b0c:	0a000032 	beq	200bdc <memset+0xe4>
  200b10:	e201c0ff 	and	ip, r1, #255	; 0xff
  200b14:	e1a03000 	mov	r3, r0
  200b18:	ea000002 	b	200b28 <memset+0x30>
  200b1c:	e3520000 	cmp	r2, #0
  200b20:	e2422001 	sub	r2, r2, #1
  200b24:	0a00002c 	beq	200bdc <memset+0xe4>
  200b28:	e4c3c001 	strb	ip, [r3], #1
  200b2c:	e3130003 	tst	r3, #3
  200b30:	1afffff9 	bne	200b1c <memset+0x24>
  200b34:	e3520003 	cmp	r2, #3
  200b38:	9a000020 	bls	200bc0 <memset+0xc8>
  200b3c:	e20140ff 	and	r4, r1, #255	; 0xff
  200b40:	e1844404 	orr	r4, r4, r4, lsl #8
  200b44:	e352000f 	cmp	r2, #15
  200b48:	e1844804 	orr	r4, r4, r4, lsl #16
  200b4c:	9a000010 	bls	200b94 <memset+0x9c>
  200b50:	e2426010 	sub	r6, r2, #16
  200b54:	e1a06226 	lsr	r6, r6, #4
  200b58:	e2835010 	add	r5, r3, #16
  200b5c:	e0855206 	add	r5, r5, r6, lsl #4
  200b60:	e1a0c003 	mov	ip, r3
  200b64:	e58c4000 	str	r4, [ip]
  200b68:	e58c4004 	str	r4, [ip, #4]
  200b6c:	e58c4008 	str	r4, [ip, #8]
  200b70:	e58c400c 	str	r4, [ip, #12]
  200b74:	e28cc010 	add	ip, ip, #16
  200b78:	e15c0005 	cmp	ip, r5
  200b7c:	1afffff8 	bne	200b64 <memset+0x6c>
  200b80:	e202200f 	and	r2, r2, #15
  200b84:	e2866001 	add	r6, r6, #1
  200b88:	e3520003 	cmp	r2, #3
  200b8c:	e0833206 	add	r3, r3, r6, lsl #4
  200b90:	9a00000a 	bls	200bc0 <memset+0xc8>
  200b94:	e1a05003 	mov	r5, r3
  200b98:	e1a0c002 	mov	ip, r2
  200b9c:	e24cc004 	sub	ip, ip, #4
  200ba0:	e35c0003 	cmp	ip, #3
  200ba4:	e4854004 	str	r4, [r5], #4
  200ba8:	8afffffb 	bhi	200b9c <memset+0xa4>
  200bac:	e242c004 	sub	ip, r2, #4
  200bb0:	e3ccc003 	bic	ip, ip, #3
  200bb4:	e28cc004 	add	ip, ip, #4
  200bb8:	e083300c 	add	r3, r3, ip
  200bbc:	e2022003 	and	r2, r2, #3
  200bc0:	e3520000 	cmp	r2, #0
  200bc4:	120110ff 	andne	r1, r1, #255	; 0xff
  200bc8:	10832002 	addne	r2, r3, r2
  200bcc:	0a000002 	beq	200bdc <memset+0xe4>
  200bd0:	e4c31001 	strb	r1, [r3], #1
  200bd4:	e1530002 	cmp	r3, r2
  200bd8:	1afffffc 	bne	200bd0 <memset+0xd8>
  200bdc:	e8bd0070 	pop	{r4, r5, r6}
  200be0:	e12fff1e 	bx	lr
  200be4:	e1a03000 	mov	r3, r0
  200be8:	eaffffd1 	b	200b34 <memset+0x3c>

00200bec <_sprintf_r>:
  200bec:	e92d000c 	push	{r2, r3}
  200bf0:	e92d4070 	push	{r4, r5, r6, lr}
  200bf4:	e24dd070 	sub	sp, sp, #112	; 0x70
  200bf8:	e28de084 	add	lr, sp, #132	; 0x84
  200bfc:	e1a04001 	mov	r4, r1
  200c00:	e3e0c102 	mvn	ip, #-2147483648	; 0x80000000
  200c04:	e1a0300e 	mov	r3, lr
  200c08:	e59d2080 	ldr	r2, [sp, #128]	; 0x80
  200c0c:	e3a06f82 	mov	r6, #520	; 0x208
  200c10:	e3e05000 	mvn	r5, #0
  200c14:	e28d1008 	add	r1, sp, #8
  200c18:	e58d4008 	str	r4, [sp, #8]
  200c1c:	e58d4018 	str	r4, [sp, #24]
  200c20:	e58de004 	str	lr, [sp, #4]
  200c24:	e1cd61b4 	strh	r6, [sp, #20]
  200c28:	e58dc010 	str	ip, [sp, #16]
  200c2c:	e58dc01c 	str	ip, [sp, #28]
  200c30:	e1cd51b6 	strh	r5, [sp, #22]
  200c34:	eb000023 	bl	200cc8 <_svfprintf_r>
  200c38:	e59d3008 	ldr	r3, [sp, #8]
  200c3c:	e3a02000 	mov	r2, #0
  200c40:	e5c32000 	strb	r2, [r3]
  200c44:	e28dd070 	add	sp, sp, #112	; 0x70
  200c48:	e8bd4070 	pop	{r4, r5, r6, lr}
  200c4c:	e28dd008 	add	sp, sp, #8
  200c50:	e12fff1e 	bx	lr

00200c54 <sprintf>:
  200c54:	e92d000e 	push	{r1, r2, r3}
  200c58:	e92d4070 	push	{r4, r5, r6, lr}
  200c5c:	e59f2060 	ldr	r2, [pc, #96]	; 200cc4 <sprintf+0x70>
  200c60:	e24dd074 	sub	sp, sp, #116	; 0x74
  200c64:	e28de088 	add	lr, sp, #136	; 0x88
  200c68:	e1a04000 	mov	r4, r0
  200c6c:	e3e0c102 	mvn	ip, #-2147483648	; 0x80000000
  200c70:	e1a0300e 	mov	r3, lr
  200c74:	e5920000 	ldr	r0, [r2]
  200c78:	e3a06f82 	mov	r6, #520	; 0x208
  200c7c:	e59d2084 	ldr	r2, [sp, #132]	; 0x84
  200c80:	e3e05000 	mvn	r5, #0
  200c84:	e28d1008 	add	r1, sp, #8
  200c88:	e58d4008 	str	r4, [sp, #8]
  200c8c:	e58d4018 	str	r4, [sp, #24]
  200c90:	e58de004 	str	lr, [sp, #4]
  200c94:	e1cd61b4 	strh	r6, [sp, #20]
  200c98:	e58dc010 	str	ip, [sp, #16]
  200c9c:	e58dc01c 	str	ip, [sp, #28]
  200ca0:	e1cd51b6 	strh	r5, [sp, #22]
  200ca4:	eb000007 	bl	200cc8 <_svfprintf_r>
  200ca8:	e59d3008 	ldr	r3, [sp, #8]
  200cac:	e3a02000 	mov	r2, #0
  200cb0:	e5c32000 	strb	r2, [r3]
  200cb4:	e28dd074 	add	sp, sp, #116	; 0x74
  200cb8:	e8bd4070 	pop	{r4, r5, r6, lr}
  200cbc:	e28dd00c 	add	sp, sp, #12
  200cc0:	e12fff1e 	bx	lr
  200cc4:	00208930 	.word	0x00208930

00200cc8 <_svfprintf_r>:
  200cc8:	e92d4ff0 	push	{r4, r5, r6, r7, r8, r9, sl, fp, lr}
  200ccc:	e24ddf43 	sub	sp, sp, #268	; 0x10c
  200cd0:	e58d3038 	str	r3, [sp, #56]	; 0x38
  200cd4:	e58d102c 	str	r1, [sp, #44]	; 0x2c
  200cd8:	e58d2020 	str	r2, [sp, #32]
  200cdc:	e58d0040 	str	r0, [sp, #64]	; 0x40
  200ce0:	eb000d90 	bl	204328 <_localeconv_r>
  200ce4:	e5900000 	ldr	r0, [r0]
  200ce8:	e58d0050 	str	r0, [sp, #80]	; 0x50
  200cec:	eb0013eb 	bl	205ca0 <strlen>
  200cf0:	e59dc02c 	ldr	ip, [sp, #44]	; 0x2c
  200cf4:	e1dc30bc 	ldrh	r3, [ip, #12]
  200cf8:	e3130080 	tst	r3, #128	; 0x80
  200cfc:	e58d0060 	str	r0, [sp, #96]	; 0x60
  200d00:	0a000002 	beq	200d10 <_svfprintf_r+0x48>
  200d04:	e59c3010 	ldr	r3, [ip, #16]
  200d08:	e3530000 	cmp	r3, #0
  200d0c:	0a0005df 	beq	202490 <_svfprintf_r+0x17c8>
  200d10:	e3a03000 	mov	r3, #0
  200d14:	e28dc0c8 	add	ip, sp, #200	; 0xc8
  200d18:	e59f7fe0 	ldr	r7, [pc, #4064]	; 201d00 <_svfprintf_r+0x1038>
  200d1c:	e58dc01c 	str	ip, [sp, #28]
  200d20:	e58d309c 	str	r3, [sp, #156]	; 0x9c
  200d24:	e58d3098 	str	r3, [sp, #152]	; 0x98
  200d28:	e58d3044 	str	r3, [sp, #68]	; 0x44
  200d2c:	e58dc094 	str	ip, [sp, #148]	; 0x94
  200d30:	e58d3058 	str	r3, [sp, #88]	; 0x58
  200d34:	e58d305c 	str	r3, [sp, #92]	; 0x5c
  200d38:	e58d3068 	str	r3, [sp, #104]	; 0x68
  200d3c:	e58d3064 	str	r3, [sp, #100]	; 0x64
  200d40:	e58d3048 	str	r3, [sp, #72]	; 0x48
  200d44:	e28d90c8 	add	r9, sp, #200	; 0xc8
  200d48:	e287a010 	add	sl, r7, #16
  200d4c:	e59dc020 	ldr	ip, [sp, #32]
  200d50:	e5dc3000 	ldrb	r3, [ip]
  200d54:	e3530025 	cmp	r3, #37	; 0x25
  200d58:	13530000 	cmpne	r3, #0
  200d5c:	0a00009d 	beq	200fd8 <_svfprintf_r+0x310>
  200d60:	e28c3001 	add	r3, ip, #1
  200d64:	e1a04003 	mov	r4, r3
  200d68:	e5d33000 	ldrb	r3, [r3]
  200d6c:	e3530025 	cmp	r3, #37	; 0x25
  200d70:	13530000 	cmpne	r3, #0
  200d74:	e2843001 	add	r3, r4, #1
  200d78:	1afffff9 	bne	200d64 <_svfprintf_r+0x9c>
  200d7c:	e59dc020 	ldr	ip, [sp, #32]
  200d80:	e054500c 	subs	r5, r4, ip
  200d84:	0a00000d 	beq	200dc0 <_svfprintf_r+0xf8>
  200d88:	e59d3098 	ldr	r3, [sp, #152]	; 0x98
  200d8c:	e59d209c 	ldr	r2, [sp, #156]	; 0x9c
  200d90:	e2833001 	add	r3, r3, #1
  200d94:	e3530007 	cmp	r3, #7
  200d98:	e0822005 	add	r2, r2, r5
  200d9c:	e589c000 	str	ip, [r9]
  200da0:	e5895004 	str	r5, [r9, #4]
  200da4:	e58d3098 	str	r3, [sp, #152]	; 0x98
  200da8:	e58d209c 	str	r2, [sp, #156]	; 0x9c
  200dac:	d2899008 	addle	r9, r9, #8
  200db0:	ca000072 	bgt	200f80 <_svfprintf_r+0x2b8>
  200db4:	e59dc048 	ldr	ip, [sp, #72]	; 0x48
  200db8:	e08cc005 	add	ip, ip, r5
  200dbc:	e58dc048 	str	ip, [sp, #72]	; 0x48
  200dc0:	e5d43000 	ldrb	r3, [r4]
  200dc4:	e3530000 	cmp	r3, #0
  200dc8:	0a000074 	beq	200fa0 <_svfprintf_r+0x2d8>
  200dcc:	e3a03000 	mov	r3, #0
  200dd0:	e5cd3077 	strb	r3, [sp, #119]	; 0x77
  200dd4:	e58d3028 	str	r3, [sp, #40]	; 0x28
  200dd8:	e1a02003 	mov	r2, r3
  200ddc:	e2844001 	add	r4, r4, #1
  200de0:	e1a06003 	mov	r6, r3
  200de4:	e3e0b000 	mvn	fp, #0
  200de8:	e1a01003 	mov	r1, r3
  200dec:	e5d45000 	ldrb	r5, [r4]
  200df0:	e2844001 	add	r4, r4, #1
  200df4:	e2453020 	sub	r3, r5, #32
  200df8:	e3530058 	cmp	r3, #88	; 0x58
  200dfc:	979ff103 	ldrls	pc, [pc, r3, lsl #2]
  200e00:	ea000207 	b	201624 <_svfprintf_r+0x95c>
  200e04:	00201430 	.word	0x00201430
  200e08:	00201624 	.word	0x00201624
  200e0c:	00201624 	.word	0x00201624
  200e10:	0020140c 	.word	0x0020140c
  200e14:	00201624 	.word	0x00201624
  200e18:	00201624 	.word	0x00201624
  200e1c:	00201624 	.word	0x00201624
  200e20:	00201624 	.word	0x00201624
  200e24:	00201624 	.word	0x00201624
  200e28:	00201624 	.word	0x00201624
  200e2c:	00201414 	.word	0x00201414
  200e30:	00200fe0 	.word	0x00200fe0
  200e34:	00201624 	.word	0x00201624
  200e38:	00200f78 	.word	0x00200f78
  200e3c:	00201390 	.word	0x00201390
  200e40:	00201624 	.word	0x00201624
  200e44:	002013d0 	.word	0x002013d0
  200e48:	002014a4 	.word	0x002014a4
  200e4c:	002014a4 	.word	0x002014a4
  200e50:	002014a4 	.word	0x002014a4
  200e54:	002014a4 	.word	0x002014a4
  200e58:	002014a4 	.word	0x002014a4
  200e5c:	002014a4 	.word	0x002014a4
  200e60:	002014a4 	.word	0x002014a4
  200e64:	002014a4 	.word	0x002014a4
  200e68:	002014a4 	.word	0x002014a4
  200e6c:	00201624 	.word	0x00201624
  200e70:	00201624 	.word	0x00201624
  200e74:	00201624 	.word	0x00201624
  200e78:	00201624 	.word	0x00201624
  200e7c:	00201624 	.word	0x00201624
  200e80:	00201624 	.word	0x00201624
  200e84:	00201624 	.word	0x00201624
  200e88:	00201624 	.word	0x00201624
  200e8c:	00201624 	.word	0x00201624
  200e90:	00201624 	.word	0x00201624
  200e94:	0020143c 	.word	0x0020143c
  200e98:	00201580 	.word	0x00201580
  200e9c:	00201624 	.word	0x00201624
  200ea0:	00201580 	.word	0x00201580
  200ea4:	00201624 	.word	0x00201624
  200ea8:	00201624 	.word	0x00201624
  200eac:	00201624 	.word	0x00201624
  200eb0:	00201624 	.word	0x00201624
  200eb4:	0020161c 	.word	0x0020161c
  200eb8:	00201624 	.word	0x00201624
  200ebc:	00201624 	.word	0x00201624
  200ec0:	0020127c 	.word	0x0020127c
  200ec4:	00201624 	.word	0x00201624
  200ec8:	00201624 	.word	0x00201624
  200ecc:	00201624 	.word	0x00201624
  200ed0:	00201624 	.word	0x00201624
  200ed4:	00201624 	.word	0x00201624
  200ed8:	00201364 	.word	0x00201364
  200edc:	00201624 	.word	0x00201624
  200ee0:	00201624 	.word	0x00201624
  200ee4:	002012bc 	.word	0x002012bc
  200ee8:	00201624 	.word	0x00201624
  200eec:	00201624 	.word	0x00201624
  200ef0:	00201624 	.word	0x00201624
  200ef4:	00201624 	.word	0x00201624
  200ef8:	00201624 	.word	0x00201624
  200efc:	00201624 	.word	0x00201624
  200f00:	00201624 	.word	0x00201624
  200f04:	00201624 	.word	0x00201624
  200f08:	00201624 	.word	0x00201624
  200f0c:	00201624 	.word	0x00201624
  200f10:	00201318 	.word	0x00201318
  200f14:	00201234 	.word	0x00201234
  200f18:	00201580 	.word	0x00201580
  200f1c:	00201580 	.word	0x00201580
  200f20:	00201580 	.word	0x00201580
  200f24:	002012b4 	.word	0x002012b4
  200f28:	00201234 	.word	0x00201234
  200f2c:	00201624 	.word	0x00201624
  200f30:	00201624 	.word	0x00201624
  200f34:	00200f68 	.word	0x00200f68
  200f38:	00201624 	.word	0x00201624
  200f3c:	002013d8 	.word	0x002013d8
  200f40:	0020120c 	.word	0x0020120c
  200f44:	00201540 	.word	0x00201540
  200f48:	00200f68 	.word	0x00200f68
  200f4c:	00201624 	.word	0x00201624
  200f50:	002014c8 	.word	0x002014c8
  200f54:	00201624 	.word	0x00201624
  200f58:	00200fe8 	.word	0x00200fe8
  200f5c:	00201624 	.word	0x00201624
  200f60:	00201624 	.word	0x00201624
  200f64:	00201468 	.word	0x00201468
  200f68:	e3866010 	orr	r6, r6, #16
  200f6c:	eaffff9e 	b	200dec <_svfprintf_r+0x124>
  200f70:	e58d3038 	str	r3, [sp, #56]	; 0x38
  200f74:	e2611000 	rsb	r1, r1, #0
  200f78:	e3866004 	orr	r6, r6, #4
  200f7c:	eaffff9a 	b	200dec <_svfprintf_r+0x124>
  200f80:	e59d0040 	ldr	r0, [sp, #64]	; 0x40
  200f84:	e59d102c 	ldr	r1, [sp, #44]	; 0x2c
  200f88:	e28d2094 	add	r2, sp, #148	; 0x94
  200f8c:	eb00135b 	bl	205d00 <__ssprint_r>
  200f90:	e3500000 	cmp	r0, #0
  200f94:	1a000007 	bne	200fb8 <_svfprintf_r+0x2f0>
  200f98:	e28d90c8 	add	r9, sp, #200	; 0xc8
  200f9c:	eaffff84 	b	200db4 <_svfprintf_r+0xec>
  200fa0:	e59d309c 	ldr	r3, [sp, #156]	; 0x9c
  200fa4:	e3530000 	cmp	r3, #0
  200fa8:	159d0040 	ldrne	r0, [sp, #64]	; 0x40
  200fac:	159d102c 	ldrne	r1, [sp, #44]	; 0x2c
  200fb0:	128d2094 	addne	r2, sp, #148	; 0x94
  200fb4:	1b001351 	blne	205d00 <__ssprint_r>
  200fb8:	e59dc02c 	ldr	ip, [sp, #44]	; 0x2c
  200fbc:	e1dc30bc 	ldrh	r3, [ip, #12]
  200fc0:	e59d0048 	ldr	r0, [sp, #72]	; 0x48
  200fc4:	e3130040 	tst	r3, #64	; 0x40
  200fc8:	13e00000 	mvnne	r0, #0
  200fcc:	e28ddf43 	add	sp, sp, #268	; 0x10c
  200fd0:	e8bd4ff0 	pop	{r4, r5, r6, r7, r8, r9, sl, fp, lr}
  200fd4:	e12fff1e 	bx	lr
  200fd8:	e59d4020 	ldr	r4, [sp, #32]
  200fdc:	eaffff77 	b	200dc0 <_svfprintf_r+0xf8>
  200fe0:	e3a0202b 	mov	r2, #43	; 0x2b
  200fe4:	eaffff80 	b	200dec <_svfprintf_r+0x124>
  200fe8:	e3160010 	tst	r6, #16
  200fec:	e58d1028 	str	r1, [sp, #40]	; 0x28
  200ff0:	e58d4020 	str	r4, [sp, #32]
  200ff4:	e59dc038 	ldr	ip, [sp, #56]	; 0x38
  200ff8:	1a0000df 	bne	20137c <_svfprintf_r+0x6b4>
  200ffc:	e3160040 	tst	r6, #64	; 0x40
  201000:	0a0000dd 	beq	20137c <_svfprintf_r+0x6b4>
  201004:	e1dc30b0 	ldrh	r3, [ip]
  201008:	e28cc004 	add	ip, ip, #4
  20100c:	e58dc038 	str	ip, [sp, #56]	; 0x38
  201010:	e3a01001 	mov	r1, #1
  201014:	e3a02000 	mov	r2, #0
  201018:	e5cd2077 	strb	r2, [sp, #119]	; 0x77
  20101c:	e35b0000 	cmp	fp, #0
  201020:	a3c66080 	bicge	r6, r6, #128	; 0x80
  201024:	e3530000 	cmp	r3, #0
  201028:	035b0000 	cmpeq	fp, #0
  20102c:	03a00000 	moveq	r0, #0
  201030:	13a00001 	movne	r0, #1
  201034:	0a00028d 	beq	201a70 <_svfprintf_r+0xda8>
  201038:	e3510001 	cmp	r1, #1
  20103c:	0a000383 	beq	201e50 <_svfprintf_r+0x1188>
  201040:	e3510002 	cmp	r1, #2
  201044:	e28d10c7 	add	r1, sp, #199	; 0xc7
  201048:	1a00005c 	bne	2011c0 <_svfprintf_r+0x4f8>
  20104c:	e59dc068 	ldr	ip, [sp, #104]	; 0x68
  201050:	e203000f 	and	r0, r3, #15
  201054:	e7dc0000 	ldrb	r0, [ip, r0]
  201058:	e1b03223 	lsrs	r3, r3, #4
  20105c:	e1a04001 	mov	r4, r1
  201060:	e5c10000 	strb	r0, [r1]
  201064:	e2411001 	sub	r1, r1, #1
  201068:	1afffff8 	bne	201050 <_svfprintf_r+0x388>
  20106c:	e59dc01c 	ldr	ip, [sp, #28]
  201070:	e064c00c 	rsb	ip, r4, ip
  201074:	e58dc034 	str	ip, [sp, #52]	; 0x34
  201078:	e59dc034 	ldr	ip, [sp, #52]	; 0x34
  20107c:	e15c000b 	cmp	ip, fp
  201080:	b1a0c00b 	movlt	ip, fp
  201084:	e58dc024 	str	ip, [sp, #36]	; 0x24
  201088:	e3a0c000 	mov	ip, #0
  20108c:	e58dc04c 	str	ip, [sp, #76]	; 0x4c
  201090:	e3520000 	cmp	r2, #0
  201094:	0a000002 	beq	2010a4 <_svfprintf_r+0x3dc>
  201098:	e59dc024 	ldr	ip, [sp, #36]	; 0x24
  20109c:	e28cc001 	add	ip, ip, #1
  2010a0:	e58dc024 	str	ip, [sp, #36]	; 0x24
  2010a4:	e2163002 	ands	r3, r6, #2
  2010a8:	159dc024 	ldrne	ip, [sp, #36]	; 0x24
  2010ac:	128cc002 	addne	ip, ip, #2
  2010b0:	e58d3030 	str	r3, [sp, #48]	; 0x30
  2010b4:	158dc024 	strne	ip, [sp, #36]	; 0x24
  2010b8:	e2163084 	ands	r3, r6, #132	; 0x84
  2010bc:	e58d303c 	str	r3, [sp, #60]	; 0x3c
  2010c0:	1a000167 	bne	201664 <_svfprintf_r+0x99c>
  2010c4:	e28d0024 	add	r0, sp, #36	; 0x24
  2010c8:	e8901001 	ldm	r0, {r0, ip}
  2010cc:	e060800c 	rsb	r8, r0, ip
  2010d0:	e3580000 	cmp	r8, #0
  2010d4:	da000162 	ble	201664 <_svfprintf_r+0x99c>
  2010d8:	e3580010 	cmp	r8, #16
  2010dc:	d59f3c1c 	ldrle	r3, [pc, #3100]	; 201d00 <_svfprintf_r+0x1038>
  2010e0:	e59d109c 	ldr	r1, [sp, #156]	; 0x9c
  2010e4:	e59d2098 	ldr	r2, [sp, #152]	; 0x98
  2010e8:	d58d3054 	strle	r3, [sp, #84]	; 0x54
  2010ec:	da000028 	ble	201194 <_svfprintf_r+0x4cc>
  2010f0:	e59fcc08 	ldr	ip, [pc, #3080]	; 201d00 <_svfprintf_r+0x1038>
  2010f4:	e58d506c 	str	r5, [sp, #108]	; 0x6c
  2010f8:	e58dc054 	str	ip, [sp, #84]	; 0x54
  2010fc:	e1a00009 	mov	r0, r9
  201100:	e3a0c010 	mov	ip, #16
  201104:	e1a09006 	mov	r9, r6
  201108:	e59d502c 	ldr	r5, [sp, #44]	; 0x2c
  20110c:	e1a06008 	mov	r6, r8
  201110:	e1a08004 	mov	r8, r4
  201114:	e59d4040 	ldr	r4, [sp, #64]	; 0x40
  201118:	ea000002 	b	201128 <_svfprintf_r+0x460>
  20111c:	e2466010 	sub	r6, r6, #16
  201120:	e3560010 	cmp	r6, #16
  201124:	da000015 	ble	201180 <_svfprintf_r+0x4b8>
  201128:	e2822001 	add	r2, r2, #1
  20112c:	e3520007 	cmp	r2, #7
  201130:	e2811010 	add	r1, r1, #16
  201134:	e8801080 	stm	r0, {r7, ip}
  201138:	e58d2098 	str	r2, [sp, #152]	; 0x98
  20113c:	e58d109c 	str	r1, [sp, #156]	; 0x9c
  201140:	d2800008 	addle	r0, r0, #8
  201144:	dafffff4 	ble	20111c <_svfprintf_r+0x454>
  201148:	e1a00004 	mov	r0, r4
  20114c:	e1a01005 	mov	r1, r5
  201150:	e28d2094 	add	r2, sp, #148	; 0x94
  201154:	e58dc018 	str	ip, [sp, #24]
  201158:	eb0012e8 	bl	205d00 <__ssprint_r>
  20115c:	e3500000 	cmp	r0, #0
  201160:	e59dc018 	ldr	ip, [sp, #24]
  201164:	1affff93 	bne	200fb8 <_svfprintf_r+0x2f0>
  201168:	e2466010 	sub	r6, r6, #16
  20116c:	e3560010 	cmp	r6, #16
  201170:	e59d109c 	ldr	r1, [sp, #156]	; 0x9c
  201174:	e59d2098 	ldr	r2, [sp, #152]	; 0x98
  201178:	e28d00c8 	add	r0, sp, #200	; 0xc8
  20117c:	caffffe9 	bgt	201128 <_svfprintf_r+0x460>
  201180:	e59d506c 	ldr	r5, [sp, #108]	; 0x6c
  201184:	e1a04008 	mov	r4, r8
  201188:	e1a08006 	mov	r8, r6
  20118c:	e1a06009 	mov	r6, r9
  201190:	e1a09000 	mov	r9, r0
  201194:	e2822001 	add	r2, r2, #1
  201198:	e59d3054 	ldr	r3, [sp, #84]	; 0x54
  20119c:	e088c001 	add	ip, r8, r1
  2011a0:	e3520007 	cmp	r2, #7
  2011a4:	e58d2098 	str	r2, [sp, #152]	; 0x98
  2011a8:	e58dc09c 	str	ip, [sp, #156]	; 0x9c
  2011ac:	e8890108 	stm	r9, {r3, r8}
  2011b0:	ca000336 	bgt	201e90 <_svfprintf_r+0x11c8>
  2011b4:	e2899008 	add	r9, r9, #8
  2011b8:	e5dd2077 	ldrb	r2, [sp, #119]	; 0x77
  2011bc:	ea000129 	b	201668 <_svfprintf_r+0x9a0>
  2011c0:	e2030007 	and	r0, r3, #7
  2011c4:	e2800030 	add	r0, r0, #48	; 0x30
  2011c8:	e1b031a3 	lsrs	r3, r3, #3
  2011cc:	e1a04001 	mov	r4, r1
  2011d0:	e5c10000 	strb	r0, [r1]
  2011d4:	e2411001 	sub	r1, r1, #1
  2011d8:	1afffff8 	bne	2011c0 <_svfprintf_r+0x4f8>
  2011dc:	e3160001 	tst	r6, #1
  2011e0:	e1a03004 	mov	r3, r4
  2011e4:	0a00022c 	beq	201a9c <_svfprintf_r+0xdd4>
  2011e8:	e3500030 	cmp	r0, #48	; 0x30
  2011ec:	0affff9e 	beq	20106c <_svfprintf_r+0x3a4>
  2011f0:	e59dc01c 	ldr	ip, [sp, #28]
  2011f4:	e1a04001 	mov	r4, r1
  2011f8:	e064c00c 	rsb	ip, r4, ip
  2011fc:	e3a01030 	mov	r1, #48	; 0x30
  201200:	e58dc034 	str	ip, [sp, #52]	; 0x34
  201204:	e5431001 	strb	r1, [r3, #-1]
  201208:	eaffff9a 	b	201078 <_svfprintf_r+0x3b0>
  20120c:	e2163010 	ands	r3, r6, #16
  201210:	e58d1028 	str	r1, [sp, #40]	; 0x28
  201214:	e58d4020 	str	r4, [sp, #32]
  201218:	0a00001c 	beq	201290 <_svfprintf_r+0x5c8>
  20121c:	e59dc038 	ldr	ip, [sp, #56]	; 0x38
  201220:	e59c3000 	ldr	r3, [ip]
  201224:	e28cc004 	add	ip, ip, #4
  201228:	e3a01000 	mov	r1, #0
  20122c:	e58dc038 	str	ip, [sp, #56]	; 0x38
  201230:	eaffff77 	b	201014 <_svfprintf_r+0x34c>
  201234:	e3160010 	tst	r6, #16
  201238:	e58d1028 	str	r1, [sp, #40]	; 0x28
  20123c:	e58d4020 	str	r4, [sp, #32]
  201240:	e5cd2077 	strb	r2, [sp, #119]	; 0x77
  201244:	e59dc038 	ldr	ip, [sp, #56]	; 0x38
  201248:	1a000082 	bne	201458 <_svfprintf_r+0x790>
  20124c:	e3160040 	tst	r6, #64	; 0x40
  201250:	0a000080 	beq	201458 <_svfprintf_r+0x790>
  201254:	e1dc30f0 	ldrsh	r3, [ip]
  201258:	e28cc004 	add	ip, ip, #4
  20125c:	e58dc038 	str	ip, [sp, #56]	; 0x38
  201260:	e3530000 	cmp	r3, #0
  201264:	b3a0202d 	movlt	r2, #45	; 0x2d
  201268:	a5dd2077 	ldrbge	r2, [sp, #119]	; 0x77
  20126c:	b2633000 	rsblt	r3, r3, #0
  201270:	b5cd2077 	strblt	r2, [sp, #119]	; 0x77
  201274:	e3a01001 	mov	r1, #1
  201278:	eaffff67 	b	20101c <_svfprintf_r+0x354>
  20127c:	e3866010 	orr	r6, r6, #16
  201280:	e2163010 	ands	r3, r6, #16
  201284:	e58d1028 	str	r1, [sp, #40]	; 0x28
  201288:	e58d4020 	str	r4, [sp, #32]
  20128c:	1affffe2 	bne	20121c <_svfprintf_r+0x554>
  201290:	e2161040 	ands	r1, r6, #64	; 0x40
  201294:	159dc038 	ldrne	ip, [sp, #56]	; 0x38
  201298:	059dc038 	ldreq	ip, [sp, #56]	; 0x38
  20129c:	11a01003 	movne	r1, r3
  2012a0:	059c3000 	ldreq	r3, [ip]
  2012a4:	11dc30b0 	ldrhne	r3, [ip]
  2012a8:	e28cc004 	add	ip, ip, #4
  2012ac:	e58dc038 	str	ip, [sp, #56]	; 0x38
  2012b0:	eaffff57 	b	201014 <_svfprintf_r+0x34c>
  2012b4:	e3866040 	orr	r6, r6, #64	; 0x40
  2012b8:	eafffecb 	b	200dec <_svfprintf_r+0x124>
  2012bc:	e59fca40 	ldr	ip, [pc, #2624]	; 201d04 <_svfprintf_r+0x103c>
  2012c0:	e3160010 	tst	r6, #16
  2012c4:	e58dc068 	str	ip, [sp, #104]	; 0x68
  2012c8:	e58d1028 	str	r1, [sp, #40]	; 0x28
  2012cc:	e58d4020 	str	r4, [sp, #32]
  2012d0:	e5cd2077 	strb	r2, [sp, #119]	; 0x77
  2012d4:	e59dc038 	ldr	ip, [sp, #56]	; 0x38
  2012d8:	1a00006a 	bne	201488 <_svfprintf_r+0x7c0>
  2012dc:	e3160040 	tst	r6, #64	; 0x40
  2012e0:	0a000068 	beq	201488 <_svfprintf_r+0x7c0>
  2012e4:	e1dc30b0 	ldrh	r3, [ip]
  2012e8:	e3160001 	tst	r6, #1
  2012ec:	e28cc004 	add	ip, ip, #4
  2012f0:	e58dc038 	str	ip, [sp, #56]	; 0x38
  2012f4:	0a000068 	beq	20149c <_svfprintf_r+0x7d4>
  2012f8:	e3530000 	cmp	r3, #0
  2012fc:	0a000066 	beq	20149c <_svfprintf_r+0x7d4>
  201300:	e3a02030 	mov	r2, #48	; 0x30
  201304:	e5cd5079 	strb	r5, [sp, #121]	; 0x79
  201308:	e3866002 	orr	r6, r6, #2
  20130c:	e5cd2078 	strb	r2, [sp, #120]	; 0x78
  201310:	e3a01002 	mov	r1, #2
  201314:	eaffff3e 	b	201014 <_svfprintf_r+0x34c>
  201318:	e3a0c001 	mov	ip, #1
  20131c:	e59d3038 	ldr	r3, [sp, #56]	; 0x38
  201320:	e58dc024 	str	ip, [sp, #36]	; 0x24
  201324:	e59dc038 	ldr	ip, [sp, #56]	; 0x38
  201328:	e58d1028 	str	r1, [sp, #40]	; 0x28
  20132c:	e28cc004 	add	ip, ip, #4
  201330:	e5931000 	ldr	r1, [r3]
  201334:	e58dc038 	str	ip, [sp, #56]	; 0x38
  201338:	e3a03000 	mov	r3, #0
  20133c:	e3a0c001 	mov	ip, #1
  201340:	e58d4020 	str	r4, [sp, #32]
  201344:	e1a02003 	mov	r2, r3
  201348:	e5cd10a0 	strb	r1, [sp, #160]	; 0xa0
  20134c:	e5cd3077 	strb	r3, [sp, #119]	; 0x77
  201350:	e1a0b003 	mov	fp, r3
  201354:	e58d304c 	str	r3, [sp, #76]	; 0x4c
  201358:	e58dc034 	str	ip, [sp, #52]	; 0x34
  20135c:	e28d40a0 	add	r4, sp, #160	; 0xa0
  201360:	eaffff4f 	b	2010a4 <_svfprintf_r+0x3dc>
  201364:	e3866010 	orr	r6, r6, #16
  201368:	e3160010 	tst	r6, #16
  20136c:	e58d1028 	str	r1, [sp, #40]	; 0x28
  201370:	e58d4020 	str	r4, [sp, #32]
  201374:	e59dc038 	ldr	ip, [sp, #56]	; 0x38
  201378:	0affff1f 	beq	200ffc <_svfprintf_r+0x334>
  20137c:	e59c3000 	ldr	r3, [ip]
  201380:	e28cc004 	add	ip, ip, #4
  201384:	e3a01001 	mov	r1, #1
  201388:	e58dc038 	str	ip, [sp, #56]	; 0x38
  20138c:	eaffff20 	b	201014 <_svfprintf_r+0x34c>
  201390:	e5d45000 	ldrb	r5, [r4]
  201394:	e355002a 	cmp	r5, #42	; 0x2a
  201398:	e2844001 	add	r4, r4, #1
  20139c:	0a000571 	beq	202968 <_svfprintf_r+0x1ca0>
  2013a0:	e2453030 	sub	r3, r5, #48	; 0x30
  2013a4:	e3530009 	cmp	r3, #9
  2013a8:	e3a0b000 	mov	fp, #0
  2013ac:	8afffe90 	bhi	200df4 <_svfprintf_r+0x12c>
  2013b0:	e4d45001 	ldrb	r5, [r4], #1
  2013b4:	e08bb10b 	add	fp, fp, fp, lsl #2
  2013b8:	e083b08b 	add	fp, r3, fp, lsl #1
  2013bc:	e2453030 	sub	r3, r5, #48	; 0x30
  2013c0:	e3530009 	cmp	r3, #9
  2013c4:	9afffff9 	bls	2013b0 <_svfprintf_r+0x6e8>
  2013c8:	e18bbfcb 	orr	fp, fp, fp, asr #31
  2013cc:	eafffe88 	b	200df4 <_svfprintf_r+0x12c>
  2013d0:	e3866080 	orr	r6, r6, #128	; 0x80
  2013d4:	eafffe84 	b	200dec <_svfprintf_r+0x124>
  2013d8:	e3160010 	tst	r6, #16
  2013dc:	e58d4020 	str	r4, [sp, #32]
  2013e0:	e5cd2077 	strb	r2, [sp, #119]	; 0x77
  2013e4:	1a0002f9 	bne	201fd0 <_svfprintf_r+0x1308>
  2013e8:	e3160040 	tst	r6, #64	; 0x40
  2013ec:	0a0002f7 	beq	201fd0 <_svfprintf_r+0x1308>
  2013f0:	e59dc038 	ldr	ip, [sp, #56]	; 0x38
  2013f4:	e59c3000 	ldr	r3, [ip]
  2013f8:	e28cc004 	add	ip, ip, #4
  2013fc:	e58dc038 	str	ip, [sp, #56]	; 0x38
  201400:	e59dc048 	ldr	ip, [sp, #72]	; 0x48
  201404:	e1c3c0b0 	strh	ip, [r3]
  201408:	eafffe4f 	b	200d4c <_svfprintf_r+0x84>
  20140c:	e3866001 	orr	r6, r6, #1
  201410:	eafffe75 	b	200dec <_svfprintf_r+0x124>
  201414:	e59dc038 	ldr	ip, [sp, #56]	; 0x38
  201418:	e59c1000 	ldr	r1, [ip]
  20141c:	e3510000 	cmp	r1, #0
  201420:	e28c3004 	add	r3, ip, #4
  201424:	bafffed1 	blt	200f70 <_svfprintf_r+0x2a8>
  201428:	e58d3038 	str	r3, [sp, #56]	; 0x38
  20142c:	eafffe6e 	b	200dec <_svfprintf_r+0x124>
  201430:	e3520000 	cmp	r2, #0
  201434:	03a02020 	moveq	r2, #32
  201438:	eafffe6b 	b	200dec <_svfprintf_r+0x124>
  20143c:	e3866010 	orr	r6, r6, #16
  201440:	e3160010 	tst	r6, #16
  201444:	e58d1028 	str	r1, [sp, #40]	; 0x28
  201448:	e58d4020 	str	r4, [sp, #32]
  20144c:	e5cd2077 	strb	r2, [sp, #119]	; 0x77
  201450:	e59dc038 	ldr	ip, [sp, #56]	; 0x38
  201454:	0affff7c 	beq	20124c <_svfprintf_r+0x584>
  201458:	e59c3000 	ldr	r3, [ip]
  20145c:	e28cc004 	add	ip, ip, #4
  201460:	e58dc038 	str	ip, [sp, #56]	; 0x38
  201464:	eaffff7d 	b	201260 <_svfprintf_r+0x598>
  201468:	e59fc898 	ldr	ip, [pc, #2200]	; 201d08 <_svfprintf_r+0x1040>
  20146c:	e3160010 	tst	r6, #16
  201470:	e58dc068 	str	ip, [sp, #104]	; 0x68
  201474:	e58d1028 	str	r1, [sp, #40]	; 0x28
  201478:	e58d4020 	str	r4, [sp, #32]
  20147c:	e5cd2077 	strb	r2, [sp, #119]	; 0x77
  201480:	e59dc038 	ldr	ip, [sp, #56]	; 0x38
  201484:	0affff94 	beq	2012dc <_svfprintf_r+0x614>
  201488:	e59c3000 	ldr	r3, [ip]
  20148c:	e3160001 	tst	r6, #1
  201490:	e28cc004 	add	ip, ip, #4
  201494:	e58dc038 	str	ip, [sp, #56]	; 0x38
  201498:	1affff96 	bne	2012f8 <_svfprintf_r+0x630>
  20149c:	e3a01002 	mov	r1, #2
  2014a0:	eafffedb 	b	201014 <_svfprintf_r+0x34c>
  2014a4:	e2453030 	sub	r3, r5, #48	; 0x30
  2014a8:	e3a01000 	mov	r1, #0
  2014ac:	e4d45001 	ldrb	r5, [r4], #1
  2014b0:	e0811101 	add	r1, r1, r1, lsl #2
  2014b4:	e0831081 	add	r1, r3, r1, lsl #1
  2014b8:	e2453030 	sub	r3, r5, #48	; 0x30
  2014bc:	e3530009 	cmp	r3, #9
  2014c0:	9afffff9 	bls	2014ac <_svfprintf_r+0x7e4>
  2014c4:	eafffe4a 	b	200df4 <_svfprintf_r+0x12c>
  2014c8:	e59dc038 	ldr	ip, [sp, #56]	; 0x38
  2014cc:	e58d4020 	str	r4, [sp, #32]
  2014d0:	e59c4000 	ldr	r4, [ip]
  2014d4:	e3a03000 	mov	r3, #0
  2014d8:	e1540003 	cmp	r4, r3
  2014dc:	e58d1028 	str	r1, [sp, #40]	; 0x28
  2014e0:	e28c8004 	add	r8, ip, #4
  2014e4:	e5cd3077 	strb	r3, [sp, #119]	; 0x77
  2014e8:	0a00047a 	beq	2026d8 <_svfprintf_r+0x1a10>
  2014ec:	e35b0000 	cmp	fp, #0
  2014f0:	e1a00004 	mov	r0, r4
  2014f4:	ba00045e 	blt	202674 <_svfprintf_r+0x19ac>
  2014f8:	e1a01003 	mov	r1, r3
  2014fc:	e1a0200b 	mov	r2, fp
  201500:	e58d3018 	str	r3, [sp, #24]
  201504:	eb000d5e 	bl	204a84 <memchr>
  201508:	e3500000 	cmp	r0, #0
  20150c:	e59d3018 	ldr	r3, [sp, #24]
  201510:	0a00048c 	beq	202748 <_svfprintf_r+0x1a80>
  201514:	e0640000 	rsb	r0, r4, r0
  201518:	e150000b 	cmp	r0, fp
  20151c:	a1a0000b 	movge	r0, fp
  201520:	e58d0034 	str	r0, [sp, #52]	; 0x34
  201524:	e1a0b003 	mov	fp, r3
  201528:	e1c0cfc0 	bic	ip, r0, r0, asr #31
  20152c:	e58d8038 	str	r8, [sp, #56]	; 0x38
  201530:	e58dc024 	str	ip, [sp, #36]	; 0x24
  201534:	e58db04c 	str	fp, [sp, #76]	; 0x4c
  201538:	e5dd2077 	ldrb	r2, [sp, #119]	; 0x77
  20153c:	eafffed3 	b	201090 <_svfprintf_r+0x3c8>
  201540:	e59dc038 	ldr	ip, [sp, #56]	; 0x38
  201544:	e28cc004 	add	ip, ip, #4
  201548:	e59d3038 	ldr	r3, [sp, #56]	; 0x38
  20154c:	e58dc038 	str	ip, [sp, #56]	; 0x38
  201550:	e59fc7b0 	ldr	ip, [pc, #1968]	; 201d08 <_svfprintf_r+0x1040>
  201554:	e3a02030 	mov	r2, #48	; 0x30
  201558:	e3a05078 	mov	r5, #120	; 0x78
  20155c:	e58d1028 	str	r1, [sp, #40]	; 0x28
  201560:	e58d4020 	str	r4, [sp, #32]
  201564:	e3866002 	orr	r6, r6, #2
  201568:	e5933000 	ldr	r3, [r3]
  20156c:	e5cd2078 	strb	r2, [sp, #120]	; 0x78
  201570:	e5cd5079 	strb	r5, [sp, #121]	; 0x79
  201574:	e58dc068 	str	ip, [sp, #104]	; 0x68
  201578:	e3a01002 	mov	r1, #2
  20157c:	eafffea4 	b	201014 <_svfprintf_r+0x34c>
  201580:	e59dc038 	ldr	ip, [sp, #56]	; 0x38
  201584:	e3160008 	tst	r6, #8
  201588:	e28c3007 	add	r3, ip, #7
  20158c:	e58d1028 	str	r1, [sp, #40]	; 0x28
  201590:	e58d4020 	str	r4, [sp, #32]
  201594:	e5cd2077 	strb	r2, [sp, #119]	; 0x77
  201598:	e3c33007 	bic	r3, r3, #7
  20159c:	0a000329 	beq	202248 <_svfprintf_r+0x1580>
  2015a0:	e283c008 	add	ip, r3, #8
  2015a4:	e58dc038 	str	ip, [sp, #56]	; 0x38
  2015a8:	e593c000 	ldr	ip, [r3]
  2015ac:	e5933004 	ldr	r3, [r3, #4]
  2015b0:	e58dc058 	str	ip, [sp, #88]	; 0x58
  2015b4:	e58d305c 	str	r3, [sp, #92]	; 0x5c
  2015b8:	e28d0058 	add	r0, sp, #88	; 0x58
  2015bc:	e8900003 	ldm	r0, {r0, r1}
  2015c0:	eb0010fe 	bl	2059c0 <__fpclassifyd>
  2015c4:	e3500001 	cmp	r0, #1
  2015c8:	e28d0058 	add	r0, sp, #88	; 0x58
  2015cc:	e8900003 	ldm	r0, {r0, r1}
  2015d0:	1a00030d 	bne	20220c <_svfprintf_r+0x1544>
  2015d4:	e3a02000 	mov	r2, #0
  2015d8:	e3a03000 	mov	r3, #0
  2015dc:	eb001be7 	bl	208580 <__aeabi_dcmplt>
  2015e0:	e3500000 	cmp	r0, #0
  2015e4:	13a0202d 	movne	r2, #45	; 0x2d
  2015e8:	e59f371c 	ldr	r3, [pc, #1820]	; 201d0c <_svfprintf_r+0x1044>
  2015ec:	e3a0c003 	mov	ip, #3
  2015f0:	05dd2077 	ldrbeq	r2, [sp, #119]	; 0x77
  2015f4:	15cd2077 	strbne	r2, [sp, #119]	; 0x77
  2015f8:	e3a0b000 	mov	fp, #0
  2015fc:	e3550047 	cmp	r5, #71	; 0x47
  201600:	e59f4708 	ldr	r4, [pc, #1800]	; 201d10 <_svfprintf_r+0x1048>
  201604:	e58dc024 	str	ip, [sp, #36]	; 0x24
  201608:	e3c66080 	bic	r6, r6, #128	; 0x80
  20160c:	d1a04003 	movle	r4, r3
  201610:	e58dc034 	str	ip, [sp, #52]	; 0x34
  201614:	e58db04c 	str	fp, [sp, #76]	; 0x4c
  201618:	eafffe9c 	b	201090 <_svfprintf_r+0x3c8>
  20161c:	e3866008 	orr	r6, r6, #8
  201620:	eafffdf1 	b	200dec <_svfprintf_r+0x124>
  201624:	e3550000 	cmp	r5, #0
  201628:	e58d1028 	str	r1, [sp, #40]	; 0x28
  20162c:	e58d4020 	str	r4, [sp, #32]
  201630:	e5cd2077 	strb	r2, [sp, #119]	; 0x77
  201634:	0afffe59 	beq	200fa0 <_svfprintf_r+0x2d8>
  201638:	e3a03000 	mov	r3, #0
  20163c:	e3a0c001 	mov	ip, #1
  201640:	e1a02003 	mov	r2, r3
  201644:	e58dc024 	str	ip, [sp, #36]	; 0x24
  201648:	e5cd50a0 	strb	r5, [sp, #160]	; 0xa0
  20164c:	e5cd3077 	strb	r3, [sp, #119]	; 0x77
  201650:	e1a0b003 	mov	fp, r3
  201654:	e58d304c 	str	r3, [sp, #76]	; 0x4c
  201658:	e58dc034 	str	ip, [sp, #52]	; 0x34
  20165c:	e28d40a0 	add	r4, sp, #160	; 0xa0
  201660:	eafffe8f 	b	2010a4 <_svfprintf_r+0x3dc>
  201664:	e59dc09c 	ldr	ip, [sp, #156]	; 0x9c
  201668:	e3520000 	cmp	r2, #0
  20166c:	0a00000a 	beq	20169c <_svfprintf_r+0x9d4>
  201670:	e59d3098 	ldr	r3, [sp, #152]	; 0x98
  201674:	e2833001 	add	r3, r3, #1
  201678:	e3530007 	cmp	r3, #7
  20167c:	e28cc001 	add	ip, ip, #1
  201680:	e28d2077 	add	r2, sp, #119	; 0x77
  201684:	e58d3098 	str	r3, [sp, #152]	; 0x98
  201688:	e3a03001 	mov	r3, #1
  20168c:	e889000c 	stm	r9, {r2, r3}
  201690:	e58dc09c 	str	ip, [sp, #156]	; 0x9c
  201694:	d2899008 	addle	r9, r9, #8
  201698:	ca00018f 	bgt	201cdc <_svfprintf_r+0x1014>
  20169c:	e59d3030 	ldr	r3, [sp, #48]	; 0x30
  2016a0:	e3530000 	cmp	r3, #0
  2016a4:	0a00000a 	beq	2016d4 <_svfprintf_r+0xa0c>
  2016a8:	e59d3098 	ldr	r3, [sp, #152]	; 0x98
  2016ac:	e2833001 	add	r3, r3, #1
  2016b0:	e3530007 	cmp	r3, #7
  2016b4:	e28cc002 	add	ip, ip, #2
  2016b8:	e28d2078 	add	r2, sp, #120	; 0x78
  2016bc:	e58d3098 	str	r3, [sp, #152]	; 0x98
  2016c0:	e3a03002 	mov	r3, #2
  2016c4:	e889000c 	stm	r9, {r2, r3}
  2016c8:	e58dc09c 	str	ip, [sp, #156]	; 0x9c
  2016cc:	d2899008 	addle	r9, r9, #8
  2016d0:	ca000196 	bgt	201d30 <_svfprintf_r+0x1068>
  2016d4:	e59d303c 	ldr	r3, [sp, #60]	; 0x3c
  2016d8:	e3530080 	cmp	r3, #128	; 0x80
  2016dc:	0a0000f2 	beq	201aac <_svfprintf_r+0xde4>
  2016e0:	e59d3034 	ldr	r3, [sp, #52]	; 0x34
  2016e4:	e063800b 	rsb	r8, r3, fp
  2016e8:	e3580000 	cmp	r8, #0
  2016ec:	da00003e 	ble	2017ec <_svfprintf_r+0xb24>
  2016f0:	e3580010 	cmp	r8, #16
  2016f4:	d59f0628 	ldrle	r0, [pc, #1576]	; 201d24 <_svfprintf_r+0x105c>
  2016f8:	e59d3098 	ldr	r3, [sp, #152]	; 0x98
  2016fc:	d58d0030 	strle	r0, [sp, #48]	; 0x30
  201700:	da000028 	ble	2017a8 <_svfprintf_r+0xae0>
  201704:	e59f1618 	ldr	r1, [pc, #1560]	; 201d24 <_svfprintf_r+0x105c>
  201708:	e58d503c 	str	r5, [sp, #60]	; 0x3c
  20170c:	e58d1030 	str	r1, [sp, #48]	; 0x30
  201710:	e1a02009 	mov	r2, r9
  201714:	e3a0b010 	mov	fp, #16
  201718:	e1a09006 	mov	r9, r6
  20171c:	e1a0100c 	mov	r1, ip
  201720:	e1a06008 	mov	r6, r8
  201724:	e59d502c 	ldr	r5, [sp, #44]	; 0x2c
  201728:	e1a08004 	mov	r8, r4
  20172c:	e59d4040 	ldr	r4, [sp, #64]	; 0x40
  201730:	ea000002 	b	201740 <_svfprintf_r+0xa78>
  201734:	e2466010 	sub	r6, r6, #16
  201738:	e3560010 	cmp	r6, #16
  20173c:	da000013 	ble	201790 <_svfprintf_r+0xac8>
  201740:	e2833001 	add	r3, r3, #1
  201744:	e3530007 	cmp	r3, #7
  201748:	e2811010 	add	r1, r1, #16
  20174c:	e8820c00 	stm	r2, {sl, fp}
  201750:	e58d3098 	str	r3, [sp, #152]	; 0x98
  201754:	e58d109c 	str	r1, [sp, #156]	; 0x9c
  201758:	d2822008 	addle	r2, r2, #8
  20175c:	dafffff4 	ble	201734 <_svfprintf_r+0xa6c>
  201760:	e1a00004 	mov	r0, r4
  201764:	e1a01005 	mov	r1, r5
  201768:	e28d2094 	add	r2, sp, #148	; 0x94
  20176c:	eb001163 	bl	205d00 <__ssprint_r>
  201770:	e3500000 	cmp	r0, #0
  201774:	1afffe0f 	bne	200fb8 <_svfprintf_r+0x2f0>
  201778:	e2466010 	sub	r6, r6, #16
  20177c:	e3560010 	cmp	r6, #16
  201780:	e59d109c 	ldr	r1, [sp, #156]	; 0x9c
  201784:	e59d3098 	ldr	r3, [sp, #152]	; 0x98
  201788:	e28d20c8 	add	r2, sp, #200	; 0xc8
  20178c:	caffffeb 	bgt	201740 <_svfprintf_r+0xa78>
  201790:	e59d503c 	ldr	r5, [sp, #60]	; 0x3c
  201794:	e1a04008 	mov	r4, r8
  201798:	e1a0c001 	mov	ip, r1
  20179c:	e1a08006 	mov	r8, r6
  2017a0:	e1a06009 	mov	r6, r9
  2017a4:	e1a09002 	mov	r9, r2
  2017a8:	e2833001 	add	r3, r3, #1
  2017ac:	e3530007 	cmp	r3, #7
  2017b0:	e58d3098 	str	r3, [sp, #152]	; 0x98
  2017b4:	e59d3030 	ldr	r3, [sp, #48]	; 0x30
  2017b8:	e08cc008 	add	ip, ip, r8
  2017bc:	e8890108 	stm	r9, {r3, r8}
  2017c0:	e58dc09c 	str	ip, [sp, #156]	; 0x9c
  2017c4:	d2899008 	addle	r9, r9, #8
  2017c8:	da000007 	ble	2017ec <_svfprintf_r+0xb24>
  2017cc:	e59d0040 	ldr	r0, [sp, #64]	; 0x40
  2017d0:	e59d102c 	ldr	r1, [sp, #44]	; 0x2c
  2017d4:	e28d2094 	add	r2, sp, #148	; 0x94
  2017d8:	eb001148 	bl	205d00 <__ssprint_r>
  2017dc:	e3500000 	cmp	r0, #0
  2017e0:	1afffdf4 	bne	200fb8 <_svfprintf_r+0x2f0>
  2017e4:	e59dc09c 	ldr	ip, [sp, #156]	; 0x9c
  2017e8:	e28d90c8 	add	r9, sp, #200	; 0xc8
  2017ec:	e3160c01 	tst	r6, #256	; 0x100
  2017f0:	1a000050 	bne	201938 <_svfprintf_r+0xc70>
  2017f4:	e59d3098 	ldr	r3, [sp, #152]	; 0x98
  2017f8:	e59d0034 	ldr	r0, [sp, #52]	; 0x34
  2017fc:	e2833001 	add	r3, r3, #1
  201800:	e08cc000 	add	ip, ip, r0
  201804:	e3530007 	cmp	r3, #7
  201808:	e58dc09c 	str	ip, [sp, #156]	; 0x9c
  20180c:	e5894000 	str	r4, [r9]
  201810:	e5890004 	str	r0, [r9, #4]
  201814:	e58d3098 	str	r3, [sp, #152]	; 0x98
  201818:	ca00011f 	bgt	201c9c <_svfprintf_r+0xfd4>
  20181c:	e2899008 	add	r9, r9, #8
  201820:	e3160004 	tst	r6, #4
  201824:	0a000036 	beq	201904 <_svfprintf_r+0xc3c>
  201828:	e59d1028 	ldr	r1, [sp, #40]	; 0x28
  20182c:	e59d2024 	ldr	r2, [sp, #36]	; 0x24
  201830:	e0624001 	rsb	r4, r2, r1
  201834:	e3540000 	cmp	r4, #0
  201838:	da000031 	ble	201904 <_svfprintf_r+0xc3c>
  20183c:	e3540010 	cmp	r4, #16
  201840:	d59f04b8 	ldrle	r0, [pc, #1208]	; 201d00 <_svfprintf_r+0x1038>
  201844:	e59d3098 	ldr	r3, [sp, #152]	; 0x98
  201848:	d58d0054 	strle	r0, [sp, #84]	; 0x54
  20184c:	da00001d 	ble	2018c8 <_svfprintf_r+0xc00>
  201850:	e59f14a8 	ldr	r1, [pc, #1192]	; 201d00 <_svfprintf_r+0x1038>
  201854:	e3a05010 	mov	r5, #16
  201858:	e58d1054 	str	r1, [sp, #84]	; 0x54
  20185c:	e59d6040 	ldr	r6, [sp, #64]	; 0x40
  201860:	e59d802c 	ldr	r8, [sp, #44]	; 0x2c
  201864:	ea000002 	b	201874 <_svfprintf_r+0xbac>
  201868:	e2444010 	sub	r4, r4, #16
  20186c:	e3540010 	cmp	r4, #16
  201870:	da000014 	ble	2018c8 <_svfprintf_r+0xc00>
  201874:	e2833001 	add	r3, r3, #1
  201878:	e3530007 	cmp	r3, #7
  20187c:	e28cc010 	add	ip, ip, #16
  201880:	e5897000 	str	r7, [r9]
  201884:	e5895004 	str	r5, [r9, #4]
  201888:	e58d3098 	str	r3, [sp, #152]	; 0x98
  20188c:	e58dc09c 	str	ip, [sp, #156]	; 0x9c
  201890:	d2899008 	addle	r9, r9, #8
  201894:	dafffff3 	ble	201868 <_svfprintf_r+0xba0>
  201898:	e1a00006 	mov	r0, r6
  20189c:	e1a01008 	mov	r1, r8
  2018a0:	e28d2094 	add	r2, sp, #148	; 0x94
  2018a4:	eb001115 	bl	205d00 <__ssprint_r>
  2018a8:	e3500000 	cmp	r0, #0
  2018ac:	1afffdc1 	bne	200fb8 <_svfprintf_r+0x2f0>
  2018b0:	e2444010 	sub	r4, r4, #16
  2018b4:	e28d3098 	add	r3, sp, #152	; 0x98
  2018b8:	e3540010 	cmp	r4, #16
  2018bc:	e8931008 	ldm	r3, {r3, ip}
  2018c0:	e28d90c8 	add	r9, sp, #200	; 0xc8
  2018c4:	caffffea 	bgt	201874 <_svfprintf_r+0xbac>
  2018c8:	e2833001 	add	r3, r3, #1
  2018cc:	e3530007 	cmp	r3, #7
  2018d0:	e58d3098 	str	r3, [sp, #152]	; 0x98
  2018d4:	e59d3054 	ldr	r3, [sp, #84]	; 0x54
  2018d8:	e08cc004 	add	ip, ip, r4
  2018dc:	e58dc09c 	str	ip, [sp, #156]	; 0x9c
  2018e0:	e8890018 	stm	r9, {r3, r4}
  2018e4:	da000006 	ble	201904 <_svfprintf_r+0xc3c>
  2018e8:	e59d0040 	ldr	r0, [sp, #64]	; 0x40
  2018ec:	e59d102c 	ldr	r1, [sp, #44]	; 0x2c
  2018f0:	e28d2094 	add	r2, sp, #148	; 0x94
  2018f4:	eb001101 	bl	205d00 <__ssprint_r>
  2018f8:	e3500000 	cmp	r0, #0
  2018fc:	1afffdad 	bne	200fb8 <_svfprintf_r+0x2f0>
  201900:	e59dc09c 	ldr	ip, [sp, #156]	; 0x9c
  201904:	e28d1024 	add	r1, sp, #36	; 0x24
  201908:	e59d0048 	ldr	r0, [sp, #72]	; 0x48
  20190c:	e8910006 	ldm	r1, {r1, r2}
  201910:	e1510002 	cmp	r1, r2
  201914:	a0800001 	addge	r0, r0, r1
  201918:	b0800002 	addlt	r0, r0, r2
  20191c:	e35c0000 	cmp	ip, #0
  201920:	e58d0048 	str	r0, [sp, #72]	; 0x48
  201924:	1a0000e5 	bne	201cc0 <_svfprintf_r+0xff8>
  201928:	e3a03000 	mov	r3, #0
  20192c:	e58d3098 	str	r3, [sp, #152]	; 0x98
  201930:	e28d90c8 	add	r9, sp, #200	; 0xc8
  201934:	eafffd04 	b	200d4c <_svfprintf_r+0x84>
  201938:	e3550065 	cmp	r5, #101	; 0x65
  20193c:	da0000a0 	ble	201bc4 <_svfprintf_r+0xefc>
  201940:	e28d0058 	add	r0, sp, #88	; 0x58
  201944:	e8900003 	ldm	r0, {r0, r1}
  201948:	e3a02000 	mov	r2, #0
  20194c:	e3a03000 	mov	r3, #0
  201950:	e58dc018 	str	ip, [sp, #24]
  201954:	eb001b03 	bl	208568 <__aeabi_dcmpeq>
  201958:	e3500000 	cmp	r0, #0
  20195c:	e59dc018 	ldr	ip, [sp, #24]
  201960:	0a0000fb 	beq	201d54 <_svfprintf_r+0x108c>
  201964:	e59d3098 	ldr	r3, [sp, #152]	; 0x98
  201968:	e59f13b0 	ldr	r1, [pc, #944]	; 201d20 <_svfprintf_r+0x1058>
  20196c:	e2833001 	add	r3, r3, #1
  201970:	e28cc001 	add	ip, ip, #1
  201974:	e3530007 	cmp	r3, #7
  201978:	e3a02001 	mov	r2, #1
  20197c:	e5891000 	str	r1, [r9]
  201980:	e5892004 	str	r2, [r9, #4]
  201984:	e58dc09c 	str	ip, [sp, #156]	; 0x9c
  201988:	e58d3098 	str	r3, [sp, #152]	; 0x98
  20198c:	d2899008 	addle	r9, r9, #8
  201990:	ca000233 	bgt	202264 <_svfprintf_r+0x159c>
  201994:	e59d307c 	ldr	r3, [sp, #124]	; 0x7c
  201998:	e59d2044 	ldr	r2, [sp, #68]	; 0x44
  20199c:	e1530002 	cmp	r3, r2
  2019a0:	ba000001 	blt	2019ac <_svfprintf_r+0xce4>
  2019a4:	e3160001 	tst	r6, #1
  2019a8:	0affff9c 	beq	201820 <_svfprintf_r+0xb58>
  2019ac:	e59d3098 	ldr	r3, [sp, #152]	; 0x98
  2019b0:	e59d0060 	ldr	r0, [sp, #96]	; 0x60
  2019b4:	e2833001 	add	r3, r3, #1
  2019b8:	e59d1050 	ldr	r1, [sp, #80]	; 0x50
  2019bc:	e08cc000 	add	ip, ip, r0
  2019c0:	e3530007 	cmp	r3, #7
  2019c4:	e5891000 	str	r1, [r9]
  2019c8:	e5890004 	str	r0, [r9, #4]
  2019cc:	e58dc09c 	str	ip, [sp, #156]	; 0x9c
  2019d0:	e58d3098 	str	r3, [sp, #152]	; 0x98
  2019d4:	d2899008 	addle	r9, r9, #8
  2019d8:	ca0002a3 	bgt	20246c <_svfprintf_r+0x17a4>
  2019dc:	e59d2044 	ldr	r2, [sp, #68]	; 0x44
  2019e0:	e2424001 	sub	r4, r2, #1
  2019e4:	e3540000 	cmp	r4, #0
  2019e8:	daffff8c 	ble	201820 <_svfprintf_r+0xb58>
  2019ec:	e3540010 	cmp	r4, #16
  2019f0:	d59f032c 	ldrle	r0, [pc, #812]	; 201d24 <_svfprintf_r+0x105c>
  2019f4:	e59d3098 	ldr	r3, [sp, #152]	; 0x98
  2019f8:	d58d0030 	strle	r0, [sp, #48]	; 0x30
  2019fc:	da00016a 	ble	201fac <_svfprintf_r+0x12e4>
  201a00:	e59f131c 	ldr	r1, [pc, #796]	; 201d24 <_svfprintf_r+0x105c>
  201a04:	e3a05010 	mov	r5, #16
  201a08:	e58d1030 	str	r1, [sp, #48]	; 0x30
  201a0c:	e59d8040 	ldr	r8, [sp, #64]	; 0x40
  201a10:	e59db02c 	ldr	fp, [sp, #44]	; 0x2c
  201a14:	ea000002 	b	201a24 <_svfprintf_r+0xd5c>
  201a18:	e2444010 	sub	r4, r4, #16
  201a1c:	e3540010 	cmp	r4, #16
  201a20:	da000161 	ble	201fac <_svfprintf_r+0x12e4>
  201a24:	e2833001 	add	r3, r3, #1
  201a28:	e3530007 	cmp	r3, #7
  201a2c:	e28cc010 	add	ip, ip, #16
  201a30:	e589a000 	str	sl, [r9]
  201a34:	e5895004 	str	r5, [r9, #4]
  201a38:	e58d3098 	str	r3, [sp, #152]	; 0x98
  201a3c:	e58dc09c 	str	ip, [sp, #156]	; 0x9c
  201a40:	d2899008 	addle	r9, r9, #8
  201a44:	dafffff3 	ble	201a18 <_svfprintf_r+0xd50>
  201a48:	e1a00008 	mov	r0, r8
  201a4c:	e1a0100b 	mov	r1, fp
  201a50:	e28d2094 	add	r2, sp, #148	; 0x94
  201a54:	eb0010a9 	bl	205d00 <__ssprint_r>
  201a58:	e3500000 	cmp	r0, #0
  201a5c:	1afffd55 	bne	200fb8 <_svfprintf_r+0x2f0>
  201a60:	e28d3098 	add	r3, sp, #152	; 0x98
  201a64:	e8931008 	ldm	r3, {r3, ip}
  201a68:	e28d90c8 	add	r9, sp, #200	; 0xc8
  201a6c:	eaffffe9 	b	201a18 <_svfprintf_r+0xd50>
  201a70:	e3510000 	cmp	r1, #0
  201a74:	158d0034 	strne	r0, [sp, #52]	; 0x34
  201a78:	128d40c8 	addne	r4, sp, #200	; 0xc8
  201a7c:	1afffd7d 	bne	201078 <_svfprintf_r+0x3b0>
  201a80:	e3160001 	tst	r6, #1
  201a84:	058d1034 	streq	r1, [sp, #52]	; 0x34
  201a88:	028d40c8 	addeq	r4, sp, #200	; 0xc8
  201a8c:	0afffd79 	beq	201078 <_svfprintf_r+0x3b0>
  201a90:	e3a03030 	mov	r3, #48	; 0x30
  201a94:	e28d4f42 	add	r4, sp, #264	; 0x108
  201a98:	e5643041 	strb	r3, [r4, #-65]!	; 0x41
  201a9c:	e59d301c 	ldr	r3, [sp, #28]
  201aa0:	e0643003 	rsb	r3, r4, r3
  201aa4:	e58d3034 	str	r3, [sp, #52]	; 0x34
  201aa8:	eafffd72 	b	201078 <_svfprintf_r+0x3b0>
  201aac:	e59d0028 	ldr	r0, [sp, #40]	; 0x28
  201ab0:	e59d1024 	ldr	r1, [sp, #36]	; 0x24
  201ab4:	e0618000 	rsb	r8, r1, r0
  201ab8:	e3580000 	cmp	r8, #0
  201abc:	daffff07 	ble	2016e0 <_svfprintf_r+0xa18>
  201ac0:	e3580010 	cmp	r8, #16
  201ac4:	d59f2258 	ldrle	r2, [pc, #600]	; 201d24 <_svfprintf_r+0x105c>
  201ac8:	e59d3098 	ldr	r3, [sp, #152]	; 0x98
  201acc:	d58d2030 	strle	r2, [sp, #48]	; 0x30
  201ad0:	da000029 	ble	201b7c <_svfprintf_r+0xeb4>
  201ad4:	e59f0248 	ldr	r0, [pc, #584]	; 201d24 <_svfprintf_r+0x105c>
  201ad8:	e58d503c 	str	r5, [sp, #60]	; 0x3c
  201adc:	e1a02009 	mov	r2, r9
  201ae0:	e58d0030 	str	r0, [sp, #48]	; 0x30
  201ae4:	e1a09006 	mov	r9, r6
  201ae8:	e1a0100c 	mov	r1, ip
  201aec:	e1a06008 	mov	r6, r8
  201af0:	e59d502c 	ldr	r5, [sp, #44]	; 0x2c
  201af4:	e1a08004 	mov	r8, r4
  201af8:	e59d4040 	ldr	r4, [sp, #64]	; 0x40
  201afc:	ea000002 	b	201b0c <_svfprintf_r+0xe44>
  201b00:	e2466010 	sub	r6, r6, #16
  201b04:	e3560010 	cmp	r6, #16
  201b08:	da000015 	ble	201b64 <_svfprintf_r+0xe9c>
  201b0c:	e2833001 	add	r3, r3, #1
  201b10:	e3530007 	cmp	r3, #7
  201b14:	e2811010 	add	r1, r1, #16
  201b18:	e3a0c010 	mov	ip, #16
  201b1c:	e582a000 	str	sl, [r2]
  201b20:	e582c004 	str	ip, [r2, #4]
  201b24:	e58d3098 	str	r3, [sp, #152]	; 0x98
  201b28:	e58d109c 	str	r1, [sp, #156]	; 0x9c
  201b2c:	d2822008 	addle	r2, r2, #8
  201b30:	dafffff2 	ble	201b00 <_svfprintf_r+0xe38>
  201b34:	e1a00004 	mov	r0, r4
  201b38:	e1a01005 	mov	r1, r5
  201b3c:	e28d2094 	add	r2, sp, #148	; 0x94
  201b40:	eb00106e 	bl	205d00 <__ssprint_r>
  201b44:	e3500000 	cmp	r0, #0
  201b48:	1afffd1a 	bne	200fb8 <_svfprintf_r+0x2f0>
  201b4c:	e2466010 	sub	r6, r6, #16
  201b50:	e3560010 	cmp	r6, #16
  201b54:	e59d109c 	ldr	r1, [sp, #156]	; 0x9c
  201b58:	e59d3098 	ldr	r3, [sp, #152]	; 0x98
  201b5c:	e28d20c8 	add	r2, sp, #200	; 0xc8
  201b60:	caffffe9 	bgt	201b0c <_svfprintf_r+0xe44>
  201b64:	e59d503c 	ldr	r5, [sp, #60]	; 0x3c
  201b68:	e1a04008 	mov	r4, r8
  201b6c:	e1a0c001 	mov	ip, r1
  201b70:	e1a08006 	mov	r8, r6
  201b74:	e1a06009 	mov	r6, r9
  201b78:	e1a09002 	mov	r9, r2
  201b7c:	e2833001 	add	r3, r3, #1
  201b80:	e3530007 	cmp	r3, #7
  201b84:	e58d3098 	str	r3, [sp, #152]	; 0x98
  201b88:	e59d3030 	ldr	r3, [sp, #48]	; 0x30
  201b8c:	e08cc008 	add	ip, ip, r8
  201b90:	e8890108 	stm	r9, {r3, r8}
  201b94:	e58dc09c 	str	ip, [sp, #156]	; 0x9c
  201b98:	d2899008 	addle	r9, r9, #8
  201b9c:	dafffecf 	ble	2016e0 <_svfprintf_r+0xa18>
  201ba0:	e59d0040 	ldr	r0, [sp, #64]	; 0x40
  201ba4:	e59d102c 	ldr	r1, [sp, #44]	; 0x2c
  201ba8:	e28d2094 	add	r2, sp, #148	; 0x94
  201bac:	eb001053 	bl	205d00 <__ssprint_r>
  201bb0:	e3500000 	cmp	r0, #0
  201bb4:	1afffcff 	bne	200fb8 <_svfprintf_r+0x2f0>
  201bb8:	e59dc09c 	ldr	ip, [sp, #156]	; 0x9c
  201bbc:	e28d90c8 	add	r9, sp, #200	; 0xc8
  201bc0:	eafffec6 	b	2016e0 <_svfprintf_r+0xa18>
  201bc4:	e59d0044 	ldr	r0, [sp, #68]	; 0x44
  201bc8:	e59d5098 	ldr	r5, [sp, #152]	; 0x98
  201bcc:	e3500001 	cmp	r0, #1
  201bd0:	e2855001 	add	r5, r5, #1
  201bd4:	da00016d 	ble	202190 <_svfprintf_r+0x14c8>
  201bd8:	e28cc001 	add	ip, ip, #1
  201bdc:	e3550007 	cmp	r5, #7
  201be0:	e3a03001 	mov	r3, #1
  201be4:	e5894000 	str	r4, [r9]
  201be8:	e5893004 	str	r3, [r9, #4]
  201bec:	e58dc09c 	str	ip, [sp, #156]	; 0x9c
  201bf0:	e58d5098 	str	r5, [sp, #152]	; 0x98
  201bf4:	d2899008 	addle	r9, r9, #8
  201bf8:	ca00016f 	bgt	2021bc <_svfprintf_r+0x14f4>
  201bfc:	e59d1060 	ldr	r1, [sp, #96]	; 0x60
  201c00:	e2855001 	add	r5, r5, #1
  201c04:	e08c8001 	add	r8, ip, r1
  201c08:	e59dc050 	ldr	ip, [sp, #80]	; 0x50
  201c0c:	e3550007 	cmp	r5, #7
  201c10:	e589c000 	str	ip, [r9]
  201c14:	e5891004 	str	r1, [r9, #4]
  201c18:	e58d5098 	str	r5, [sp, #152]	; 0x98
  201c1c:	e58d809c 	str	r8, [sp, #156]	; 0x9c
  201c20:	d2899008 	addle	r9, r9, #8
  201c24:	ca00016e 	bgt	2021e4 <_svfprintf_r+0x151c>
  201c28:	e28d0058 	add	r0, sp, #88	; 0x58
  201c2c:	e8900003 	ldm	r0, {r0, r1}
  201c30:	e3a02000 	mov	r2, #0
  201c34:	e3a03000 	mov	r3, #0
  201c38:	eb001a4a 	bl	208568 <__aeabi_dcmpeq>
  201c3c:	e3500000 	cmp	r0, #0
  201c40:	1a00009c 	bne	201eb8 <_svfprintf_r+0x11f0>
  201c44:	e59dc044 	ldr	ip, [sp, #68]	; 0x44
  201c48:	e2855001 	add	r5, r5, #1
  201c4c:	e24c3001 	sub	r3, ip, #1
  201c50:	e2844001 	add	r4, r4, #1
  201c54:	e0888003 	add	r8, r8, r3
  201c58:	e3550007 	cmp	r5, #7
  201c5c:	e58d5098 	str	r5, [sp, #152]	; 0x98
  201c60:	e58d809c 	str	r8, [sp, #156]	; 0x9c
  201c64:	e5894000 	str	r4, [r9]
  201c68:	e5893004 	str	r3, [r9, #4]
  201c6c:	ca0000c4 	bgt	201f84 <_svfprintf_r+0x12bc>
  201c70:	e2899008 	add	r9, r9, #8
  201c74:	e59d0064 	ldr	r0, [sp, #100]	; 0x64
  201c78:	e2855001 	add	r5, r5, #1
  201c7c:	e080c008 	add	ip, r0, r8
  201c80:	e28d3084 	add	r3, sp, #132	; 0x84
  201c84:	e3550007 	cmp	r5, #7
  201c88:	e58d5098 	str	r5, [sp, #152]	; 0x98
  201c8c:	e58dc09c 	str	ip, [sp, #156]	; 0x9c
  201c90:	e5890004 	str	r0, [r9, #4]
  201c94:	e5893000 	str	r3, [r9]
  201c98:	dafffedf 	ble	20181c <_svfprintf_r+0xb54>
  201c9c:	e59d0040 	ldr	r0, [sp, #64]	; 0x40
  201ca0:	e59d102c 	ldr	r1, [sp, #44]	; 0x2c
  201ca4:	e28d2094 	add	r2, sp, #148	; 0x94
  201ca8:	eb001014 	bl	205d00 <__ssprint_r>
  201cac:	e3500000 	cmp	r0, #0
  201cb0:	1afffcc0 	bne	200fb8 <_svfprintf_r+0x2f0>
  201cb4:	e59dc09c 	ldr	ip, [sp, #156]	; 0x9c
  201cb8:	e28d90c8 	add	r9, sp, #200	; 0xc8
  201cbc:	eafffed7 	b	201820 <_svfprintf_r+0xb58>
  201cc0:	e59d0040 	ldr	r0, [sp, #64]	; 0x40
  201cc4:	e59d102c 	ldr	r1, [sp, #44]	; 0x2c
  201cc8:	e28d2094 	add	r2, sp, #148	; 0x94
  201ccc:	eb00100b 	bl	205d00 <__ssprint_r>
  201cd0:	e3500000 	cmp	r0, #0
  201cd4:	0affff13 	beq	201928 <_svfprintf_r+0xc60>
  201cd8:	eafffcb6 	b	200fb8 <_svfprintf_r+0x2f0>
  201cdc:	e59d0040 	ldr	r0, [sp, #64]	; 0x40
  201ce0:	e59d102c 	ldr	r1, [sp, #44]	; 0x2c
  201ce4:	e28d2094 	add	r2, sp, #148	; 0x94
  201ce8:	eb001004 	bl	205d00 <__ssprint_r>
  201cec:	e3500000 	cmp	r0, #0
  201cf0:	1afffcb0 	bne	200fb8 <_svfprintf_r+0x2f0>
  201cf4:	e59dc09c 	ldr	ip, [sp, #156]	; 0x9c
  201cf8:	e28d90c8 	add	r9, sp, #200	; 0xc8
  201cfc:	eafffe66 	b	20169c <_svfprintf_r+0x9d4>
  201d00:	00208688 	.word	0x00208688
  201d04:	0020886c 	.word	0x0020886c
  201d08:	00208880 	.word	0x00208880
  201d0c:	0020885c 	.word	0x0020885c
  201d10:	00208860 	.word	0x00208860
  201d14:	cccccccd 	.word	0xcccccccd
  201d18:	00208864 	.word	0x00208864
  201d1c:	00208868 	.word	0x00208868
  201d20:	0020889c 	.word	0x0020889c
  201d24:	00208698 	.word	0x00208698
  201d28:	00208894 	.word	0x00208894
  201d2c:	66666667 	.word	0x66666667
  201d30:	e59d0040 	ldr	r0, [sp, #64]	; 0x40
  201d34:	e59d102c 	ldr	r1, [sp, #44]	; 0x2c
  201d38:	e28d2094 	add	r2, sp, #148	; 0x94
  201d3c:	eb000fef 	bl	205d00 <__ssprint_r>
  201d40:	e3500000 	cmp	r0, #0
  201d44:	1afffc9b 	bne	200fb8 <_svfprintf_r+0x2f0>
  201d48:	e59dc09c 	ldr	ip, [sp, #156]	; 0x9c
  201d4c:	e28d90c8 	add	r9, sp, #200	; 0xc8
  201d50:	eafffe5f 	b	2016d4 <_svfprintf_r+0xa0c>
  201d54:	e59d307c 	ldr	r3, [sp, #124]	; 0x7c
  201d58:	e3530000 	cmp	r3, #0
  201d5c:	da000149 	ble	202288 <_svfprintf_r+0x15c0>
  201d60:	e59d5044 	ldr	r5, [sp, #68]	; 0x44
  201d64:	e59d204c 	ldr	r2, [sp, #76]	; 0x4c
  201d68:	e59d3044 	ldr	r3, [sp, #68]	; 0x44
  201d6c:	e1550002 	cmp	r5, r2
  201d70:	a1a05002 	movge	r5, r2
  201d74:	e3550000 	cmp	r5, #0
  201d78:	e084b003 	add	fp, r4, r3
  201d7c:	da000008 	ble	201da4 <_svfprintf_r+0x10dc>
  201d80:	e59d3098 	ldr	r3, [sp, #152]	; 0x98
  201d84:	e2833001 	add	r3, r3, #1
  201d88:	e08cc005 	add	ip, ip, r5
  201d8c:	e3530007 	cmp	r3, #7
  201d90:	e8890030 	stm	r9, {r4, r5}
  201d94:	e58dc09c 	str	ip, [sp, #156]	; 0x9c
  201d98:	e58d3098 	str	r3, [sp, #152]	; 0x98
  201d9c:	d2899008 	addle	r9, r9, #8
  201da0:	ca000237 	bgt	202684 <_svfprintf_r+0x19bc>
  201da4:	e59d004c 	ldr	r0, [sp, #76]	; 0x4c
  201da8:	e1c55fc5 	bic	r5, r5, r5, asr #31
  201dac:	e0655000 	rsb	r5, r5, r0
  201db0:	e3550000 	cmp	r5, #0
  201db4:	da0000a2 	ble	202044 <_svfprintf_r+0x137c>
  201db8:	e3550010 	cmp	r5, #16
  201dbc:	d51f10a0 	ldrle	r1, [pc, #-160]	; 201d24 <_svfprintf_r+0x105c>
  201dc0:	e59d3098 	ldr	r3, [sp, #152]	; 0x98
  201dc4:	d58d1030 	strle	r1, [sp, #48]	; 0x30
  201dc8:	da00008c 	ble	202000 <_svfprintf_r+0x1338>
  201dcc:	e51f20b0 	ldr	r2, [pc, #-176]	; 201d24 <_svfprintf_r+0x105c>
  201dd0:	e58d4034 	str	r4, [sp, #52]	; 0x34
  201dd4:	e58d2030 	str	r2, [sp, #48]	; 0x30
  201dd8:	e3a08010 	mov	r8, #16
  201ddc:	e1a02009 	mov	r2, r9
  201de0:	e1a0100c 	mov	r1, ip
  201de4:	e1a09006 	mov	r9, r6
  201de8:	e59d4040 	ldr	r4, [sp, #64]	; 0x40
  201dec:	e1a06005 	mov	r6, r5
  201df0:	e59d502c 	ldr	r5, [sp, #44]	; 0x2c
  201df4:	ea000002 	b	201e04 <_svfprintf_r+0x113c>
  201df8:	e2466010 	sub	r6, r6, #16
  201dfc:	e3560010 	cmp	r6, #16
  201e00:	da000079 	ble	201fec <_svfprintf_r+0x1324>
  201e04:	e2833001 	add	r3, r3, #1
  201e08:	e3530007 	cmp	r3, #7
  201e0c:	e2811010 	add	r1, r1, #16
  201e10:	e582a000 	str	sl, [r2]
  201e14:	e5828004 	str	r8, [r2, #4]
  201e18:	e58d3098 	str	r3, [sp, #152]	; 0x98
  201e1c:	e58d109c 	str	r1, [sp, #156]	; 0x9c
  201e20:	d2822008 	addle	r2, r2, #8
  201e24:	dafffff3 	ble	201df8 <_svfprintf_r+0x1130>
  201e28:	e1a00004 	mov	r0, r4
  201e2c:	e1a01005 	mov	r1, r5
  201e30:	e28d2094 	add	r2, sp, #148	; 0x94
  201e34:	eb000fb1 	bl	205d00 <__ssprint_r>
  201e38:	e3500000 	cmp	r0, #0
  201e3c:	1afffc5d 	bne	200fb8 <_svfprintf_r+0x2f0>
  201e40:	e59d109c 	ldr	r1, [sp, #156]	; 0x9c
  201e44:	e59d3098 	ldr	r3, [sp, #152]	; 0x98
  201e48:	e28d20c8 	add	r2, sp, #200	; 0xc8
  201e4c:	eaffffe9 	b	201df8 <_svfprintf_r+0x1130>
  201e50:	e3530009 	cmp	r3, #9
  201e54:	92833030 	addls	r3, r3, #48	; 0x30
  201e58:	9affff0d 	bls	201a94 <_svfprintf_r+0xdcc>
  201e5c:	e28d00c7 	add	r0, sp, #199	; 0xc7
  201e60:	e51f1154 	ldr	r1, [pc, #-340]	; 201d14 <_svfprintf_r+0x104c>
  201e64:	e081c193 	umull	ip, r1, r3, r1
  201e68:	e1a011a1 	lsr	r1, r1, #3
  201e6c:	e081c101 	add	ip, r1, r1, lsl #2
  201e70:	e043308c 	sub	r3, r3, ip, lsl #1
  201e74:	e1a04000 	mov	r4, r0
  201e78:	e2830030 	add	r0, r3, #48	; 0x30
  201e7c:	e2513000 	subs	r3, r1, #0
  201e80:	e5c40000 	strb	r0, [r4]
  201e84:	e2440001 	sub	r0, r4, #1
  201e88:	1afffff4 	bne	201e60 <_svfprintf_r+0x1198>
  201e8c:	eaffff02 	b	201a9c <_svfprintf_r+0xdd4>
  201e90:	e59d0040 	ldr	r0, [sp, #64]	; 0x40
  201e94:	e59d102c 	ldr	r1, [sp, #44]	; 0x2c
  201e98:	e28d2094 	add	r2, sp, #148	; 0x94
  201e9c:	eb000f97 	bl	205d00 <__ssprint_r>
  201ea0:	e3500000 	cmp	r0, #0
  201ea4:	1afffc43 	bne	200fb8 <_svfprintf_r+0x2f0>
  201ea8:	e5dd2077 	ldrb	r2, [sp, #119]	; 0x77
  201eac:	e59dc09c 	ldr	ip, [sp, #156]	; 0x9c
  201eb0:	e28d90c8 	add	r9, sp, #200	; 0xc8
  201eb4:	eafffdeb 	b	201668 <_svfprintf_r+0x9a0>
  201eb8:	e59dc044 	ldr	ip, [sp, #68]	; 0x44
  201ebc:	e24c4001 	sub	r4, ip, #1
  201ec0:	e3540000 	cmp	r4, #0
  201ec4:	daffff6a 	ble	201c74 <_svfprintf_r+0xfac>
  201ec8:	e3540010 	cmp	r4, #16
  201ecc:	d51f31b0 	ldrle	r3, [pc, #-432]	; 201d24 <_svfprintf_r+0x105c>
  201ed0:	d58d3030 	strle	r3, [sp, #48]	; 0x30
  201ed4:	da000022 	ble	201f64 <_svfprintf_r+0x129c>
  201ed8:	e51fc1bc 	ldr	ip, [pc, #-444]	; 201d24 <_svfprintf_r+0x105c>
  201edc:	e58d6034 	str	r6, [sp, #52]	; 0x34
  201ee0:	e1a03008 	mov	r3, r8
  201ee4:	e58dc030 	str	ip, [sp, #48]	; 0x30
  201ee8:	e1a08004 	mov	r8, r4
  201eec:	e3a0b010 	mov	fp, #16
  201ef0:	e59d4040 	ldr	r4, [sp, #64]	; 0x40
  201ef4:	e59d602c 	ldr	r6, [sp, #44]	; 0x2c
  201ef8:	ea000002 	b	201f08 <_svfprintf_r+0x1240>
  201efc:	e2488010 	sub	r8, r8, #16
  201f00:	e3580010 	cmp	r8, #16
  201f04:	da000013 	ble	201f58 <_svfprintf_r+0x1290>
  201f08:	e2855001 	add	r5, r5, #1
  201f0c:	e3550007 	cmp	r5, #7
  201f10:	e2833010 	add	r3, r3, #16
  201f14:	e8890c00 	stm	r9, {sl, fp}
  201f18:	e58d5098 	str	r5, [sp, #152]	; 0x98
  201f1c:	e58d309c 	str	r3, [sp, #156]	; 0x9c
  201f20:	d2899008 	addle	r9, r9, #8
  201f24:	dafffff4 	ble	201efc <_svfprintf_r+0x1234>
  201f28:	e1a00004 	mov	r0, r4
  201f2c:	e1a01006 	mov	r1, r6
  201f30:	e28d2094 	add	r2, sp, #148	; 0x94
  201f34:	eb000f71 	bl	205d00 <__ssprint_r>
  201f38:	e3500000 	cmp	r0, #0
  201f3c:	1afffc1d 	bne	200fb8 <_svfprintf_r+0x2f0>
  201f40:	e2488010 	sub	r8, r8, #16
  201f44:	e3580010 	cmp	r8, #16
  201f48:	e59d309c 	ldr	r3, [sp, #156]	; 0x9c
  201f4c:	e59d5098 	ldr	r5, [sp, #152]	; 0x98
  201f50:	e28d90c8 	add	r9, sp, #200	; 0xc8
  201f54:	caffffeb 	bgt	201f08 <_svfprintf_r+0x1240>
  201f58:	e59d6034 	ldr	r6, [sp, #52]	; 0x34
  201f5c:	e1a04008 	mov	r4, r8
  201f60:	e1a08003 	mov	r8, r3
  201f64:	e2855001 	add	r5, r5, #1
  201f68:	e59d3030 	ldr	r3, [sp, #48]	; 0x30
  201f6c:	e0888004 	add	r8, r8, r4
  201f70:	e3550007 	cmp	r5, #7
  201f74:	e58d5098 	str	r5, [sp, #152]	; 0x98
  201f78:	e58d809c 	str	r8, [sp, #156]	; 0x9c
  201f7c:	e8890018 	stm	r9, {r3, r4}
  201f80:	daffff3a 	ble	201c70 <_svfprintf_r+0xfa8>
  201f84:	e59d0040 	ldr	r0, [sp, #64]	; 0x40
  201f88:	e59d102c 	ldr	r1, [sp, #44]	; 0x2c
  201f8c:	e28d2094 	add	r2, sp, #148	; 0x94
  201f90:	eb000f5a 	bl	205d00 <__ssprint_r>
  201f94:	e3500000 	cmp	r0, #0
  201f98:	1afffc06 	bne	200fb8 <_svfprintf_r+0x2f0>
  201f9c:	e28d5098 	add	r5, sp, #152	; 0x98
  201fa0:	e8950120 	ldm	r5, {r5, r8}
  201fa4:	e28d90c8 	add	r9, sp, #200	; 0xc8
  201fa8:	eaffff31 	b	201c74 <_svfprintf_r+0xfac>
  201fac:	e2833001 	add	r3, r3, #1
  201fb0:	e58d3098 	str	r3, [sp, #152]	; 0x98
  201fb4:	e3530007 	cmp	r3, #7
  201fb8:	e59d3030 	ldr	r3, [sp, #48]	; 0x30
  201fbc:	e08cc004 	add	ip, ip, r4
  201fc0:	e58dc09c 	str	ip, [sp, #156]	; 0x9c
  201fc4:	e8890018 	stm	r9, {r3, r4}
  201fc8:	dafffe13 	ble	20181c <_svfprintf_r+0xb54>
  201fcc:	eaffff32 	b	201c9c <_svfprintf_r+0xfd4>
  201fd0:	e59dc038 	ldr	ip, [sp, #56]	; 0x38
  201fd4:	e59c3000 	ldr	r3, [ip]
  201fd8:	e28cc004 	add	ip, ip, #4
  201fdc:	e58dc038 	str	ip, [sp, #56]	; 0x38
  201fe0:	e59dc048 	ldr	ip, [sp, #72]	; 0x48
  201fe4:	e583c000 	str	ip, [r3]
  201fe8:	eafffb57 	b	200d4c <_svfprintf_r+0x84>
  201fec:	e59d4034 	ldr	r4, [sp, #52]	; 0x34
  201ff0:	e1a05006 	mov	r5, r6
  201ff4:	e1a0c001 	mov	ip, r1
  201ff8:	e1a06009 	mov	r6, r9
  201ffc:	e1a09002 	mov	r9, r2
  202000:	e2833001 	add	r3, r3, #1
  202004:	e3530007 	cmp	r3, #7
  202008:	e58d3098 	str	r3, [sp, #152]	; 0x98
  20200c:	e59d3030 	ldr	r3, [sp, #48]	; 0x30
  202010:	e08cc005 	add	ip, ip, r5
  202014:	e8890028 	stm	r9, {r3, r5}
  202018:	e58dc09c 	str	ip, [sp, #156]	; 0x9c
  20201c:	d2899008 	addle	r9, r9, #8
  202020:	da000007 	ble	202044 <_svfprintf_r+0x137c>
  202024:	e59d0040 	ldr	r0, [sp, #64]	; 0x40
  202028:	e59d102c 	ldr	r1, [sp, #44]	; 0x2c
  20202c:	e28d2094 	add	r2, sp, #148	; 0x94
  202030:	eb000f32 	bl	205d00 <__ssprint_r>
  202034:	e3500000 	cmp	r0, #0
  202038:	1afffbde 	bne	200fb8 <_svfprintf_r+0x2f0>
  20203c:	e59dc09c 	ldr	ip, [sp, #156]	; 0x9c
  202040:	e28d90c8 	add	r9, sp, #200	; 0xc8
  202044:	e59d307c 	ldr	r3, [sp, #124]	; 0x7c
  202048:	e59d0044 	ldr	r0, [sp, #68]	; 0x44
  20204c:	e59d104c 	ldr	r1, [sp, #76]	; 0x4c
  202050:	e1530000 	cmp	r3, r0
  202054:	e0844001 	add	r4, r4, r1
  202058:	ba000036 	blt	202138 <_svfprintf_r+0x1470>
  20205c:	e3160001 	tst	r6, #1
  202060:	1a000034 	bne	202138 <_svfprintf_r+0x1470>
  202064:	e59d2044 	ldr	r2, [sp, #68]	; 0x44
  202068:	e064500b 	rsb	r5, r4, fp
  20206c:	e0633002 	rsb	r3, r3, r2
  202070:	e1550003 	cmp	r5, r3
  202074:	a1a05003 	movge	r5, r3
  202078:	e3550000 	cmp	r5, #0
  20207c:	da000008 	ble	2020a4 <_svfprintf_r+0x13dc>
  202080:	e59d2098 	ldr	r2, [sp, #152]	; 0x98
  202084:	e2822001 	add	r2, r2, #1
  202088:	e08cc005 	add	ip, ip, r5
  20208c:	e3520007 	cmp	r2, #7
  202090:	e8890030 	stm	r9, {r4, r5}
  202094:	e58dc09c 	str	ip, [sp, #156]	; 0x9c
  202098:	e58d2098 	str	r2, [sp, #152]	; 0x98
  20209c:	d2899008 	addle	r9, r9, #8
  2020a0:	ca000180 	bgt	2026a8 <_svfprintf_r+0x19e0>
  2020a4:	e1c55fc5 	bic	r5, r5, r5, asr #31
  2020a8:	e0654003 	rsb	r4, r5, r3
  2020ac:	e3540000 	cmp	r4, #0
  2020b0:	dafffdda 	ble	201820 <_svfprintf_r+0xb58>
  2020b4:	e3540010 	cmp	r4, #16
  2020b8:	d51f139c 	ldrle	r1, [pc, #-924]	; 201d24 <_svfprintf_r+0x105c>
  2020bc:	e59d3098 	ldr	r3, [sp, #152]	; 0x98
  2020c0:	d58d1030 	strle	r1, [sp, #48]	; 0x30
  2020c4:	daffffb8 	ble	201fac <_svfprintf_r+0x12e4>
  2020c8:	e51f23ac 	ldr	r2, [pc, #-940]	; 201d24 <_svfprintf_r+0x105c>
  2020cc:	e3a05010 	mov	r5, #16
  2020d0:	e58d2030 	str	r2, [sp, #48]	; 0x30
  2020d4:	e59d8040 	ldr	r8, [sp, #64]	; 0x40
  2020d8:	e59db02c 	ldr	fp, [sp, #44]	; 0x2c
  2020dc:	ea000002 	b	2020ec <_svfprintf_r+0x1424>
  2020e0:	e2444010 	sub	r4, r4, #16
  2020e4:	e3540010 	cmp	r4, #16
  2020e8:	daffffaf 	ble	201fac <_svfprintf_r+0x12e4>
  2020ec:	e2833001 	add	r3, r3, #1
  2020f0:	e3530007 	cmp	r3, #7
  2020f4:	e28cc010 	add	ip, ip, #16
  2020f8:	e589a000 	str	sl, [r9]
  2020fc:	e5895004 	str	r5, [r9, #4]
  202100:	e58d3098 	str	r3, [sp, #152]	; 0x98
  202104:	e58dc09c 	str	ip, [sp, #156]	; 0x9c
  202108:	d2899008 	addle	r9, r9, #8
  20210c:	dafffff3 	ble	2020e0 <_svfprintf_r+0x1418>
  202110:	e1a00008 	mov	r0, r8
  202114:	e1a0100b 	mov	r1, fp
  202118:	e28d2094 	add	r2, sp, #148	; 0x94
  20211c:	eb000ef7 	bl	205d00 <__ssprint_r>
  202120:	e3500000 	cmp	r0, #0
  202124:	1afffba3 	bne	200fb8 <_svfprintf_r+0x2f0>
  202128:	e28d3098 	add	r3, sp, #152	; 0x98
  20212c:	e8931008 	ldm	r3, {r3, ip}
  202130:	e28d90c8 	add	r9, sp, #200	; 0xc8
  202134:	eaffffe9 	b	2020e0 <_svfprintf_r+0x1418>
  202138:	e59d2098 	ldr	r2, [sp, #152]	; 0x98
  20213c:	e59d0060 	ldr	r0, [sp, #96]	; 0x60
  202140:	e2822001 	add	r2, r2, #1
  202144:	e59d1050 	ldr	r1, [sp, #80]	; 0x50
  202148:	e08cc000 	add	ip, ip, r0
  20214c:	e3520007 	cmp	r2, #7
  202150:	e5891000 	str	r1, [r9]
  202154:	e5890004 	str	r0, [r9, #4]
  202158:	e58dc09c 	str	ip, [sp, #156]	; 0x9c
  20215c:	e58d2098 	str	r2, [sp, #152]	; 0x98
  202160:	d2899008 	addle	r9, r9, #8
  202164:	daffffbe 	ble	202064 <_svfprintf_r+0x139c>
  202168:	e59d0040 	ldr	r0, [sp, #64]	; 0x40
  20216c:	e59d102c 	ldr	r1, [sp, #44]	; 0x2c
  202170:	e28d2094 	add	r2, sp, #148	; 0x94
  202174:	eb000ee1 	bl	205d00 <__ssprint_r>
  202178:	e3500000 	cmp	r0, #0
  20217c:	1afffb8d 	bne	200fb8 <_svfprintf_r+0x2f0>
  202180:	e59d307c 	ldr	r3, [sp, #124]	; 0x7c
  202184:	e59dc09c 	ldr	ip, [sp, #156]	; 0x9c
  202188:	e28d90c8 	add	r9, sp, #200	; 0xc8
  20218c:	eaffffb4 	b	202064 <_svfprintf_r+0x139c>
  202190:	e3160001 	tst	r6, #1
  202194:	1afffe8f 	bne	201bd8 <_svfprintf_r+0xf10>
  202198:	e28c8001 	add	r8, ip, #1
  20219c:	e3a03001 	mov	r3, #1
  2021a0:	e3550007 	cmp	r5, #7
  2021a4:	e58d809c 	str	r8, [sp, #156]	; 0x9c
  2021a8:	e58d5098 	str	r5, [sp, #152]	; 0x98
  2021ac:	e5894000 	str	r4, [r9]
  2021b0:	e5893004 	str	r3, [r9, #4]
  2021b4:	dafffead 	ble	201c70 <_svfprintf_r+0xfa8>
  2021b8:	eaffff71 	b	201f84 <_svfprintf_r+0x12bc>
  2021bc:	e59d0040 	ldr	r0, [sp, #64]	; 0x40
  2021c0:	e59d102c 	ldr	r1, [sp, #44]	; 0x2c
  2021c4:	e28d2094 	add	r2, sp, #148	; 0x94
  2021c8:	eb000ecc 	bl	205d00 <__ssprint_r>
  2021cc:	e3500000 	cmp	r0, #0
  2021d0:	1afffb78 	bne	200fb8 <_svfprintf_r+0x2f0>
  2021d4:	e28d5098 	add	r5, sp, #152	; 0x98
  2021d8:	e8951020 	ldm	r5, {r5, ip}
  2021dc:	e28d90c8 	add	r9, sp, #200	; 0xc8
  2021e0:	eafffe85 	b	201bfc <_svfprintf_r+0xf34>
  2021e4:	e59d0040 	ldr	r0, [sp, #64]	; 0x40
  2021e8:	e59d102c 	ldr	r1, [sp, #44]	; 0x2c
  2021ec:	e28d2094 	add	r2, sp, #148	; 0x94
  2021f0:	eb000ec2 	bl	205d00 <__ssprint_r>
  2021f4:	e3500000 	cmp	r0, #0
  2021f8:	1afffb6e 	bne	200fb8 <_svfprintf_r+0x2f0>
  2021fc:	e28d5098 	add	r5, sp, #152	; 0x98
  202200:	e8950120 	ldm	r5, {r5, r8}
  202204:	e28d90c8 	add	r9, sp, #200	; 0xc8
  202208:	eafffe86 	b	201c28 <_svfprintf_r+0xf60>
  20220c:	eb000deb 	bl	2059c0 <__fpclassifyd>
  202210:	e3500000 	cmp	r0, #0
  202214:	1a00005f 	bne	202398 <_svfprintf_r+0x16d0>
  202218:	e51f3508 	ldr	r3, [pc, #-1288]	; 201d18 <_svfprintf_r+0x1050>
  20221c:	e3a0c003 	mov	ip, #3
  202220:	e3550047 	cmp	r5, #71	; 0x47
  202224:	e51f4510 	ldr	r4, [pc, #-1296]	; 201d1c <_svfprintf_r+0x1054>
  202228:	e1a0b000 	mov	fp, r0
  20222c:	e58dc024 	str	ip, [sp, #36]	; 0x24
  202230:	e3c66080 	bic	r6, r6, #128	; 0x80
  202234:	e58d004c 	str	r0, [sp, #76]	; 0x4c
  202238:	d1a04003 	movle	r4, r3
  20223c:	e58dc034 	str	ip, [sp, #52]	; 0x34
  202240:	e5dd2077 	ldrb	r2, [sp, #119]	; 0x77
  202244:	eafffb91 	b	201090 <_svfprintf_r+0x3c8>
  202248:	e593c000 	ldr	ip, [r3]
  20224c:	e58dc058 	str	ip, [sp, #88]	; 0x58
  202250:	e593c004 	ldr	ip, [r3, #4]
  202254:	e2833008 	add	r3, r3, #8
  202258:	e58dc05c 	str	ip, [sp, #92]	; 0x5c
  20225c:	e58d3038 	str	r3, [sp, #56]	; 0x38
  202260:	eafffcd4 	b	2015b8 <_svfprintf_r+0x8f0>
  202264:	e59d0040 	ldr	r0, [sp, #64]	; 0x40
  202268:	e59d102c 	ldr	r1, [sp, #44]	; 0x2c
  20226c:	e28d2094 	add	r2, sp, #148	; 0x94
  202270:	eb000ea2 	bl	205d00 <__ssprint_r>
  202274:	e3500000 	cmp	r0, #0
  202278:	1afffb4e 	bne	200fb8 <_svfprintf_r+0x2f0>
  20227c:	e59dc09c 	ldr	ip, [sp, #156]	; 0x9c
  202280:	e28d90c8 	add	r9, sp, #200	; 0xc8
  202284:	eafffdc2 	b	201994 <_svfprintf_r+0xccc>
  202288:	e59d2098 	ldr	r2, [sp, #152]	; 0x98
  20228c:	e51f0574 	ldr	r0, [pc, #-1396]	; 201d20 <_svfprintf_r+0x1058>
  202290:	e2822001 	add	r2, r2, #1
  202294:	e28cc001 	add	ip, ip, #1
  202298:	e3a01001 	mov	r1, #1
  20229c:	e3520007 	cmp	r2, #7
  2022a0:	e58dc09c 	str	ip, [sp, #156]	; 0x9c
  2022a4:	e5890000 	str	r0, [r9]
  2022a8:	e58d2098 	str	r2, [sp, #152]	; 0x98
  2022ac:	e5891004 	str	r1, [r9, #4]
  2022b0:	ca0000c7 	bgt	2025d4 <_svfprintf_r+0x190c>
  2022b4:	e2899008 	add	r9, r9, #8
  2022b8:	e1a05003 	mov	r5, r3
  2022bc:	e3550000 	cmp	r5, #0
  2022c0:	1a000004 	bne	2022d8 <_svfprintf_r+0x1610>
  2022c4:	e59d1044 	ldr	r1, [sp, #68]	; 0x44
  2022c8:	e3510000 	cmp	r1, #0
  2022cc:	1a000001 	bne	2022d8 <_svfprintf_r+0x1610>
  2022d0:	e3160001 	tst	r6, #1
  2022d4:	0afffd51 	beq	201820 <_svfprintf_r+0xb58>
  2022d8:	e59d3098 	ldr	r3, [sp, #152]	; 0x98
  2022dc:	e59d2060 	ldr	r2, [sp, #96]	; 0x60
  2022e0:	e2833001 	add	r3, r3, #1
  2022e4:	e59d0050 	ldr	r0, [sp, #80]	; 0x50
  2022e8:	e08cc002 	add	ip, ip, r2
  2022ec:	e3530007 	cmp	r3, #7
  2022f0:	e8890005 	stm	r9, {r0, r2}
  2022f4:	e58dc09c 	str	ip, [sp, #156]	; 0x9c
  2022f8:	e58d3098 	str	r3, [sp, #152]	; 0x98
  2022fc:	d2899008 	addle	r9, r9, #8
  202300:	ca000137 	bgt	2027e4 <_svfprintf_r+0x1b1c>
  202304:	e2655000 	rsb	r5, r5, #0
  202308:	e3550000 	cmp	r5, #0
  20230c:	da0000ce 	ble	20264c <_svfprintf_r+0x1984>
  202310:	e3550010 	cmp	r5, #16
  202314:	d51f15f8 	ldrle	r1, [pc, #-1528]	; 201d24 <_svfprintf_r+0x105c>
  202318:	d58d1030 	strle	r1, [sp, #48]	; 0x30
  20231c:	da0000b8 	ble	202604 <_svfprintf_r+0x193c>
  202320:	e51f2604 	ldr	r2, [pc, #-1540]	; 201d24 <_svfprintf_r+0x105c>
  202324:	e58d4034 	str	r4, [sp, #52]	; 0x34
  202328:	e58d2030 	str	r2, [sp, #48]	; 0x30
  20232c:	e3a08010 	mov	r8, #16
  202330:	e1a0200c 	mov	r2, ip
  202334:	e59db040 	ldr	fp, [sp, #64]	; 0x40
  202338:	e59d402c 	ldr	r4, [sp, #44]	; 0x2c
  20233c:	ea000002 	b	20234c <_svfprintf_r+0x1684>
  202340:	e2455010 	sub	r5, r5, #16
  202344:	e3550010 	cmp	r5, #16
  202348:	da0000ab 	ble	2025fc <_svfprintf_r+0x1934>
  20234c:	e2833001 	add	r3, r3, #1
  202350:	e3530007 	cmp	r3, #7
  202354:	e2822010 	add	r2, r2, #16
  202358:	e589a000 	str	sl, [r9]
  20235c:	e5898004 	str	r8, [r9, #4]
  202360:	e58d3098 	str	r3, [sp, #152]	; 0x98
  202364:	e58d209c 	str	r2, [sp, #156]	; 0x9c
  202368:	d2899008 	addle	r9, r9, #8
  20236c:	dafffff3 	ble	202340 <_svfprintf_r+0x1678>
  202370:	e1a0000b 	mov	r0, fp
  202374:	e1a01004 	mov	r1, r4
  202378:	e28d2094 	add	r2, sp, #148	; 0x94
  20237c:	eb000e5f 	bl	205d00 <__ssprint_r>
  202380:	e3500000 	cmp	r0, #0
  202384:	1afffb0b 	bne	200fb8 <_svfprintf_r+0x2f0>
  202388:	e59d209c 	ldr	r2, [sp, #156]	; 0x9c
  20238c:	e59d3098 	ldr	r3, [sp, #152]	; 0x98
  202390:	e28d90c8 	add	r9, sp, #200	; 0xc8
  202394:	eaffffe9 	b	202340 <_svfprintf_r+0x1678>
  202398:	e37b0001 	cmn	fp, #1
  20239c:	e3c58020 	bic	r8, r5, #32
  2023a0:	03a0b006 	moveq	fp, #6
  2023a4:	0a000003 	beq	2023b8 <_svfprintf_r+0x16f0>
  2023a8:	e3580047 	cmp	r8, #71	; 0x47
  2023ac:	1a000001 	bne	2023b8 <_svfprintf_r+0x16f0>
  2023b0:	e35b0000 	cmp	fp, #0
  2023b4:	03a0b001 	moveq	fp, #1
  2023b8:	e59d305c 	ldr	r3, [sp, #92]	; 0x5c
  2023bc:	e386cc01 	orr	ip, r6, #256	; 0x100
  2023c0:	e3530000 	cmp	r3, #0
  2023c4:	e58dc03c 	str	ip, [sp, #60]	; 0x3c
  2023c8:	a59dc05c 	ldrge	ip, [sp, #92]	; 0x5c
  2023cc:	b283c102 	addlt	ip, r3, #-2147483648	; 0x80000000
  2023d0:	b58dc024 	strlt	ip, [sp, #36]	; 0x24
  2023d4:	a58dc024 	strge	ip, [sp, #36]	; 0x24
  2023d8:	b3a0c02d 	movlt	ip, #45	; 0x2d
  2023dc:	a3a0c000 	movge	ip, #0
  2023e0:	e2583046 	subs	r3, r8, #70	; 0x46
  2023e4:	e58dc030 	str	ip, [sp, #48]	; 0x30
  2023e8:	e273c000 	rsbs	ip, r3, #0
  2023ec:	e0bcc003 	adcs	ip, ip, r3
  2023f0:	e35c0000 	cmp	ip, #0
  2023f4:	0a000031 	beq	2024c0 <_svfprintf_r+0x17f8>
  2023f8:	e3a01003 	mov	r1, #3
  2023fc:	e28d007c 	add	r0, sp, #124	; 0x7c
  202400:	e58d1000 	str	r1, [sp]
  202404:	e58d0008 	str	r0, [sp, #8]
  202408:	e28d1080 	add	r1, sp, #128	; 0x80
  20240c:	e28d008c 	add	r0, sp, #140	; 0x8c
  202410:	e58d0010 	str	r0, [sp, #16]
  202414:	e59d2058 	ldr	r2, [sp, #88]	; 0x58
  202418:	e59d3024 	ldr	r3, [sp, #36]	; 0x24
  20241c:	e58db004 	str	fp, [sp, #4]
  202420:	e58d100c 	str	r1, [sp, #12]
  202424:	e59d0040 	ldr	r0, [sp, #64]	; 0x40
  202428:	e58dc018 	str	ip, [sp, #24]
  20242c:	eb0001d7 	bl	202b90 <_dtoa_r>
  202430:	e3580047 	cmp	r8, #71	; 0x47
  202434:	e1a04000 	mov	r4, r0
  202438:	e59dc018 	ldr	ip, [sp, #24]
  20243c:	1a000001 	bne	202448 <_svfprintf_r+0x1780>
  202440:	e3160001 	tst	r6, #1
  202444:	0a0000b5 	beq	202720 <_svfprintf_r+0x1a58>
  202448:	e35c0000 	cmp	ip, #0
  20244c:	e084c00b 	add	ip, r4, fp
  202450:	0a00002d 	beq	20250c <_svfprintf_r+0x1844>
  202454:	e5d43000 	ldrb	r3, [r4]
  202458:	e3530030 	cmp	r3, #48	; 0x30
  20245c:	0a000125 	beq	2028f8 <_svfprintf_r+0x1c30>
  202460:	e59d307c 	ldr	r3, [sp, #124]	; 0x7c
  202464:	e08cc003 	add	ip, ip, r3
  202468:	ea000027 	b	20250c <_svfprintf_r+0x1844>
  20246c:	e59d0040 	ldr	r0, [sp, #64]	; 0x40
  202470:	e59d102c 	ldr	r1, [sp, #44]	; 0x2c
  202474:	e28d2094 	add	r2, sp, #148	; 0x94
  202478:	eb000e20 	bl	205d00 <__ssprint_r>
  20247c:	e3500000 	cmp	r0, #0
  202480:	1afffacc 	bne	200fb8 <_svfprintf_r+0x2f0>
  202484:	e59dc09c 	ldr	ip, [sp, #156]	; 0x9c
  202488:	e28d90c8 	add	r9, sp, #200	; 0xc8
  20248c:	eafffd52 	b	2019dc <_svfprintf_r+0xd14>
  202490:	e59d0040 	ldr	r0, [sp, #64]	; 0x40
  202494:	e3a01040 	mov	r1, #64	; 0x40
  202498:	eb0007ae 	bl	204358 <_malloc_r>
  20249c:	e59dc02c 	ldr	ip, [sp, #44]	; 0x2c
  2024a0:	e3500000 	cmp	r0, #0
  2024a4:	e58c0000 	str	r0, [ip]
  2024a8:	e58c0010 	str	r0, [ip, #16]
  2024ac:	0a000137 	beq	202990 <_svfprintf_r+0x1cc8>
  2024b0:	e59dc02c 	ldr	ip, [sp, #44]	; 0x2c
  2024b4:	e3a03040 	mov	r3, #64	; 0x40
  2024b8:	e58c3014 	str	r3, [ip, #20]
  2024bc:	eafffa13 	b	200d10 <_svfprintf_r+0x48>
  2024c0:	e3580045 	cmp	r8, #69	; 0x45
  2024c4:	1a0000db 	bne	202838 <_svfprintf_r+0x1b70>
  2024c8:	e28bc001 	add	ip, fp, #1
  2024cc:	e3a00002 	mov	r0, #2
  2024d0:	e28d107c 	add	r1, sp, #124	; 0x7c
  2024d4:	e88d1001 	stm	sp, {r0, ip}
  2024d8:	e58d1008 	str	r1, [sp, #8]
  2024dc:	e28d0080 	add	r0, sp, #128	; 0x80
  2024e0:	e28d108c 	add	r1, sp, #140	; 0x8c
  2024e4:	e58d000c 	str	r0, [sp, #12]
  2024e8:	e59d2058 	ldr	r2, [sp, #88]	; 0x58
  2024ec:	e59d3024 	ldr	r3, [sp, #36]	; 0x24
  2024f0:	e58d1010 	str	r1, [sp, #16]
  2024f4:	e59d0040 	ldr	r0, [sp, #64]	; 0x40
  2024f8:	e58dc018 	str	ip, [sp, #24]
  2024fc:	eb0001a3 	bl	202b90 <_dtoa_r>
  202500:	e59dc018 	ldr	ip, [sp, #24]
  202504:	e1a04000 	mov	r4, r0
  202508:	e080c00c 	add	ip, r0, ip
  20250c:	e3a03000 	mov	r3, #0
  202510:	e59d0058 	ldr	r0, [sp, #88]	; 0x58
  202514:	e59d1024 	ldr	r1, [sp, #36]	; 0x24
  202518:	e3a02000 	mov	r2, #0
  20251c:	e58dc018 	str	ip, [sp, #24]
  202520:	eb001810 	bl	208568 <__aeabi_dcmpeq>
  202524:	e59dc018 	ldr	ip, [sp, #24]
  202528:	e3500000 	cmp	r0, #0
  20252c:	11a0300c 	movne	r3, ip
  202530:	1a000009 	bne	20255c <_svfprintf_r+0x1894>
  202534:	e59d308c 	ldr	r3, [sp, #140]	; 0x8c
  202538:	e15c0003 	cmp	ip, r3
  20253c:	9a000006 	bls	20255c <_svfprintf_r+0x1894>
  202540:	e3a01030 	mov	r1, #48	; 0x30
  202544:	e2832001 	add	r2, r3, #1
  202548:	e58d208c 	str	r2, [sp, #140]	; 0x8c
  20254c:	e5c31000 	strb	r1, [r3]
  202550:	e59d308c 	ldr	r3, [sp, #140]	; 0x8c
  202554:	e15c0003 	cmp	ip, r3
  202558:	8afffff9 	bhi	202544 <_svfprintf_r+0x187c>
  20255c:	e0643003 	rsb	r3, r4, r3
  202560:	e3580047 	cmp	r8, #71	; 0x47
  202564:	e58d3044 	str	r3, [sp, #68]	; 0x44
  202568:	0a00006f 	beq	20272c <_svfprintf_r+0x1a64>
  20256c:	e3550065 	cmp	r5, #101	; 0x65
  202570:	da00010b 	ble	2029a4 <_svfprintf_r+0x1cdc>
  202574:	e59dc07c 	ldr	ip, [sp, #124]	; 0x7c
  202578:	e3550066 	cmp	r5, #102	; 0x66
  20257c:	e58dc04c 	str	ip, [sp, #76]	; 0x4c
  202580:	0a0000ae 	beq	202840 <_svfprintf_r+0x1b78>
  202584:	e59dc04c 	ldr	ip, [sp, #76]	; 0x4c
  202588:	e59d0044 	ldr	r0, [sp, #68]	; 0x44
  20258c:	e15c0000 	cmp	ip, r0
  202590:	ba00009e 	blt	202810 <_svfprintf_r+0x1b48>
  202594:	e3160001 	tst	r6, #1
  202598:	159d304c 	ldrne	r3, [sp, #76]	; 0x4c
  20259c:	058dc034 	streq	ip, [sp, #52]	; 0x34
  2025a0:	12833001 	addne	r3, r3, #1
  2025a4:	158d3034 	strne	r3, [sp, #52]	; 0x34
  2025a8:	01cc3fcc 	biceq	r3, ip, ip, asr #31
  2025ac:	11c33fc3 	bicne	r3, r3, r3, asr #31
  2025b0:	e3a05067 	mov	r5, #103	; 0x67
  2025b4:	e59dc030 	ldr	ip, [sp, #48]	; 0x30
  2025b8:	e35c0000 	cmp	ip, #0
  2025bc:	1a000051 	bne	202708 <_svfprintf_r+0x1a40>
  2025c0:	e58d3024 	str	r3, [sp, #36]	; 0x24
  2025c4:	e59d603c 	ldr	r6, [sp, #60]	; 0x3c
  2025c8:	e1a0b00c 	mov	fp, ip
  2025cc:	e5dd2077 	ldrb	r2, [sp, #119]	; 0x77
  2025d0:	eafffaae 	b	201090 <_svfprintf_r+0x3c8>
  2025d4:	e59d0040 	ldr	r0, [sp, #64]	; 0x40
  2025d8:	e59d102c 	ldr	r1, [sp, #44]	; 0x2c
  2025dc:	e28d2094 	add	r2, sp, #148	; 0x94
  2025e0:	eb000dc6 	bl	205d00 <__ssprint_r>
  2025e4:	e3500000 	cmp	r0, #0
  2025e8:	1afffa72 	bne	200fb8 <_svfprintf_r+0x2f0>
  2025ec:	e59d507c 	ldr	r5, [sp, #124]	; 0x7c
  2025f0:	e59dc09c 	ldr	ip, [sp, #156]	; 0x9c
  2025f4:	e28d90c8 	add	r9, sp, #200	; 0xc8
  2025f8:	eaffff2f 	b	2022bc <_svfprintf_r+0x15f4>
  2025fc:	e59d4034 	ldr	r4, [sp, #52]	; 0x34
  202600:	e1a0c002 	mov	ip, r2
  202604:	e2833001 	add	r3, r3, #1
  202608:	e59d0030 	ldr	r0, [sp, #48]	; 0x30
  20260c:	e3530007 	cmp	r3, #7
  202610:	e08cc005 	add	ip, ip, r5
  202614:	e8890021 	stm	r9, {r0, r5}
  202618:	e58d3098 	str	r3, [sp, #152]	; 0x98
  20261c:	e58dc09c 	str	ip, [sp, #156]	; 0x9c
  202620:	d2899008 	addle	r9, r9, #8
  202624:	da000008 	ble	20264c <_svfprintf_r+0x1984>
  202628:	e59d0040 	ldr	r0, [sp, #64]	; 0x40
  20262c:	e59d102c 	ldr	r1, [sp, #44]	; 0x2c
  202630:	e28d2094 	add	r2, sp, #148	; 0x94
  202634:	eb000db1 	bl	205d00 <__ssprint_r>
  202638:	e3500000 	cmp	r0, #0
  20263c:	1afffa5d 	bne	200fb8 <_svfprintf_r+0x2f0>
  202640:	e28d3098 	add	r3, sp, #152	; 0x98
  202644:	e8931008 	ldm	r3, {r3, ip}
  202648:	e28d90c8 	add	r9, sp, #200	; 0xc8
  20264c:	e59d1044 	ldr	r1, [sp, #68]	; 0x44
  202650:	e2833001 	add	r3, r3, #1
  202654:	e081c00c 	add	ip, r1, ip
  202658:	e3530007 	cmp	r3, #7
  20265c:	e58d3098 	str	r3, [sp, #152]	; 0x98
  202660:	e58dc09c 	str	ip, [sp, #156]	; 0x9c
  202664:	e5894000 	str	r4, [r9]
  202668:	e5891004 	str	r1, [r9, #4]
  20266c:	dafffc6a 	ble	20181c <_svfprintf_r+0xb54>
  202670:	eafffd89 	b	201c9c <_svfprintf_r+0xfd4>
  202674:	e1a0b003 	mov	fp, r3
  202678:	eb000d88 	bl	205ca0 <strlen>
  20267c:	e58d0034 	str	r0, [sp, #52]	; 0x34
  202680:	eafffba8 	b	201528 <_svfprintf_r+0x860>
  202684:	e59d0040 	ldr	r0, [sp, #64]	; 0x40
  202688:	e59d102c 	ldr	r1, [sp, #44]	; 0x2c
  20268c:	e28d2094 	add	r2, sp, #148	; 0x94
  202690:	eb000d9a 	bl	205d00 <__ssprint_r>
  202694:	e3500000 	cmp	r0, #0
  202698:	1afffa46 	bne	200fb8 <_svfprintf_r+0x2f0>
  20269c:	e59dc09c 	ldr	ip, [sp, #156]	; 0x9c
  2026a0:	e28d90c8 	add	r9, sp, #200	; 0xc8
  2026a4:	eafffdbe 	b	201da4 <_svfprintf_r+0x10dc>
  2026a8:	e59d0040 	ldr	r0, [sp, #64]	; 0x40
  2026ac:	e59d102c 	ldr	r1, [sp, #44]	; 0x2c
  2026b0:	e28d2094 	add	r2, sp, #148	; 0x94
  2026b4:	eb000d91 	bl	205d00 <__ssprint_r>
  2026b8:	e3500000 	cmp	r0, #0
  2026bc:	1afffa3d 	bne	200fb8 <_svfprintf_r+0x2f0>
  2026c0:	e59d307c 	ldr	r3, [sp, #124]	; 0x7c
  2026c4:	e59d0044 	ldr	r0, [sp, #68]	; 0x44
  2026c8:	e59dc09c 	ldr	ip, [sp, #156]	; 0x9c
  2026cc:	e0633000 	rsb	r3, r3, r0
  2026d0:	e28d90c8 	add	r9, sp, #200	; 0xc8
  2026d4:	eafffe72 	b	2020a4 <_svfprintf_r+0x13dc>
  2026d8:	e35b0006 	cmp	fp, #6
  2026dc:	23a0b006 	movcs	fp, #6
  2026e0:	e58db034 	str	fp, [sp, #52]	; 0x34
  2026e4:	e59dc034 	ldr	ip, [sp, #52]	; 0x34
  2026e8:	e1cccfcc 	bic	ip, ip, ip, asr #31
  2026ec:	e1a02004 	mov	r2, r4
  2026f0:	e1a0b004 	mov	fp, r4
  2026f4:	e58d404c 	str	r4, [sp, #76]	; 0x4c
  2026f8:	e58d8038 	str	r8, [sp, #56]	; 0x38
  2026fc:	e58dc024 	str	ip, [sp, #36]	; 0x24
  202700:	e51f49e0 	ldr	r4, [pc, #-2528]	; 201d28 <_svfprintf_r+0x1060>
  202704:	eafffa61 	b	201090 <_svfprintf_r+0x3c8>
  202708:	e3a0202d 	mov	r2, #45	; 0x2d
  20270c:	e58d3024 	str	r3, [sp, #36]	; 0x24
  202710:	e59d603c 	ldr	r6, [sp, #60]	; 0x3c
  202714:	e5cd2077 	strb	r2, [sp, #119]	; 0x77
  202718:	e3a0b000 	mov	fp, #0
  20271c:	eafffa5d 	b	201098 <_svfprintf_r+0x3d0>
  202720:	e59d308c 	ldr	r3, [sp, #140]	; 0x8c
  202724:	e0603003 	rsb	r3, r0, r3
  202728:	e58d3044 	str	r3, [sp, #68]	; 0x44
  20272c:	e59d307c 	ldr	r3, [sp, #124]	; 0x7c
  202730:	e3730003 	cmn	r3, #3
  202734:	ba00000b 	blt	202768 <_svfprintf_r+0x1aa0>
  202738:	e15b0003 	cmp	fp, r3
  20273c:	ba000009 	blt	202768 <_svfprintf_r+0x1aa0>
  202740:	e58d304c 	str	r3, [sp, #76]	; 0x4c
  202744:	eaffff8e 	b	202584 <_svfprintf_r+0x18bc>
  202748:	e1cbcfcb 	bic	ip, fp, fp, asr #31
  20274c:	e58db034 	str	fp, [sp, #52]	; 0x34
  202750:	e58dc024 	str	ip, [sp, #36]	; 0x24
  202754:	e1a0b000 	mov	fp, r0
  202758:	e58d8038 	str	r8, [sp, #56]	; 0x38
  20275c:	e58d004c 	str	r0, [sp, #76]	; 0x4c
  202760:	e5dd2077 	ldrb	r2, [sp, #119]	; 0x77
  202764:	eafffa49 	b	201090 <_svfprintf_r+0x3c8>
  202768:	e2455002 	sub	r5, r5, #2
  20276c:	e2431001 	sub	r1, r3, #1
  202770:	e3510000 	cmp	r1, #0
  202774:	e58d107c 	str	r1, [sp, #124]	; 0x7c
  202778:	b2611000 	rsblt	r1, r1, #0
  20277c:	b3a0302d 	movlt	r3, #45	; 0x2d
  202780:	a3a0302b 	movge	r3, #43	; 0x2b
  202784:	e3510009 	cmp	r1, #9
  202788:	e5cd5084 	strb	r5, [sp, #132]	; 0x84
  20278c:	e5cd3085 	strb	r3, [sp, #133]	; 0x85
  202790:	ca000033 	bgt	202864 <_svfprintf_r+0x1b9c>
  202794:	e2811030 	add	r1, r1, #48	; 0x30
  202798:	e3a03030 	mov	r3, #48	; 0x30
  20279c:	e5cd1087 	strb	r1, [sp, #135]	; 0x87
  2027a0:	e5cd3086 	strb	r3, [sp, #134]	; 0x86
  2027a4:	e28d3088 	add	r3, sp, #136	; 0x88
  2027a8:	e59dc044 	ldr	ip, [sp, #68]	; 0x44
  2027ac:	e28d2084 	add	r2, sp, #132	; 0x84
  2027b0:	e0622003 	rsb	r2, r2, r3
  2027b4:	e08c3002 	add	r3, ip, r2
  2027b8:	e35c0001 	cmp	ip, #1
  2027bc:	e58d2064 	str	r2, [sp, #100]	; 0x64
  2027c0:	e58d3034 	str	r3, [sp, #52]	; 0x34
  2027c4:	da000057 	ble	202928 <_svfprintf_r+0x1c60>
  2027c8:	e59d3034 	ldr	r3, [sp, #52]	; 0x34
  2027cc:	e3a0c000 	mov	ip, #0
  2027d0:	e2833001 	add	r3, r3, #1
  2027d4:	e58d3034 	str	r3, [sp, #52]	; 0x34
  2027d8:	e58dc04c 	str	ip, [sp, #76]	; 0x4c
  2027dc:	e1c33fc3 	bic	r3, r3, r3, asr #31
  2027e0:	eaffff73 	b	2025b4 <_svfprintf_r+0x18ec>
  2027e4:	e59d0040 	ldr	r0, [sp, #64]	; 0x40
  2027e8:	e59d102c 	ldr	r1, [sp, #44]	; 0x2c
  2027ec:	e28d2094 	add	r2, sp, #148	; 0x94
  2027f0:	eb000d42 	bl	205d00 <__ssprint_r>
  2027f4:	e3500000 	cmp	r0, #0
  2027f8:	1afff9ee 	bne	200fb8 <_svfprintf_r+0x2f0>
  2027fc:	e28d3098 	add	r3, sp, #152	; 0x98
  202800:	e59d507c 	ldr	r5, [sp, #124]	; 0x7c
  202804:	e8931008 	ldm	r3, {r3, ip}
  202808:	e28d90c8 	add	r9, sp, #200	; 0xc8
  20280c:	eafffebc 	b	202304 <_svfprintf_r+0x163c>
  202810:	e59dc04c 	ldr	ip, [sp, #76]	; 0x4c
  202814:	e35c0000 	cmp	ip, #0
  202818:	d26c3002 	rsble	r3, ip, #2
  20281c:	e59dc044 	ldr	ip, [sp, #68]	; 0x44
  202820:	c3a03001 	movgt	r3, #1
  202824:	e083300c 	add	r3, r3, ip
  202828:	e58d3034 	str	r3, [sp, #52]	; 0x34
  20282c:	e3a05067 	mov	r5, #103	; 0x67
  202830:	e1c33fc3 	bic	r3, r3, r3, asr #31
  202834:	eaffff5e 	b	2025b4 <_svfprintf_r+0x18ec>
  202838:	e3a01002 	mov	r1, #2
  20283c:	eafffeee 	b	2023fc <_svfprintf_r+0x1734>
  202840:	e35c0000 	cmp	ip, #0
  202844:	da00003d 	ble	202940 <_svfprintf_r+0x1c78>
  202848:	e35b0000 	cmp	fp, #0
  20284c:	1a000023 	bne	2028e0 <_svfprintf_r+0x1c18>
  202850:	e3160001 	tst	r6, #1
  202854:	1a000021 	bne	2028e0 <_svfprintf_r+0x1c18>
  202858:	e1cc3fcc 	bic	r3, ip, ip, asr #31
  20285c:	e58dc034 	str	ip, [sp, #52]	; 0x34
  202860:	eaffff53 	b	2025b4 <_svfprintf_r+0x18ec>
  202864:	e28d2092 	add	r2, sp, #146	; 0x92
  202868:	e51f0b44 	ldr	r0, [pc, #-2884]	; 201d2c <_svfprintf_r+0x1064>
  20286c:	e0c03091 	smull	r3, r0, r1, r0
  202870:	e1a03fc1 	asr	r3, r1, #31
  202874:	e0633140 	rsb	r3, r3, r0, asr #2
  202878:	e0830103 	add	r0, r3, r3, lsl #2
  20287c:	e0410080 	sub	r0, r1, r0, lsl #1
  202880:	e1a01003 	mov	r1, r3
  202884:	e3510009 	cmp	r1, #9
  202888:	e1a03002 	mov	r3, r2
  20288c:	e2802030 	add	r2, r0, #48	; 0x30
  202890:	e5c32000 	strb	r2, [r3]
  202894:	e2432001 	sub	r2, r3, #1
  202898:	cafffff2 	bgt	202868 <_svfprintf_r+0x1ba0>
  20289c:	e2811030 	add	r1, r1, #48	; 0x30
  2028a0:	e28dc093 	add	ip, sp, #147	; 0x93
  2028a4:	e20110ff 	and	r1, r1, #255	; 0xff
  2028a8:	e15c0002 	cmp	ip, r2
  2028ac:	e5431001 	strb	r1, [r3, #-1]
  2028b0:	9a000034 	bls	202988 <_svfprintf_r+0x1cc0>
  2028b4:	e28d0085 	add	r0, sp, #133	; 0x85
  2028b8:	e1a02003 	mov	r2, r3
  2028bc:	ea000000 	b	2028c4 <_svfprintf_r+0x1bfc>
  2028c0:	e4d21001 	ldrb	r1, [r2], #1
  2028c4:	e152000c 	cmp	r2, ip
  2028c8:	e5e01001 	strb	r1, [r0, #1]!
  2028cc:	1afffffb 	bne	2028c0 <_svfprintf_r+0x1bf8>
  2028d0:	e28dcf42 	add	ip, sp, #264	; 0x108
  2028d4:	e063308c 	rsb	r3, r3, ip, lsl #1
  2028d8:	e24330f6 	sub	r3, r3, #246	; 0xf6
  2028dc:	eaffffb1 	b	2027a8 <_svfprintf_r+0x1ae0>
  2028e0:	e59dc04c 	ldr	ip, [sp, #76]	; 0x4c
  2028e4:	e28b3001 	add	r3, fp, #1
  2028e8:	e08c3003 	add	r3, ip, r3
  2028ec:	e58d3034 	str	r3, [sp, #52]	; 0x34
  2028f0:	e1c33fc3 	bic	r3, r3, r3, asr #31
  2028f4:	eaffff2e 	b	2025b4 <_svfprintf_r+0x18ec>
  2028f8:	e59d0058 	ldr	r0, [sp, #88]	; 0x58
  2028fc:	e59d1024 	ldr	r1, [sp, #36]	; 0x24
  202900:	e3a02000 	mov	r2, #0
  202904:	e3a03000 	mov	r3, #0
  202908:	e58dc018 	str	ip, [sp, #24]
  20290c:	eb001715 	bl	208568 <__aeabi_dcmpeq>
  202910:	e3500000 	cmp	r0, #0
  202914:	e59dc018 	ldr	ip, [sp, #24]
  202918:	1afffed0 	bne	202460 <_svfprintf_r+0x1798>
  20291c:	e26b3001 	rsb	r3, fp, #1
  202920:	e58d307c 	str	r3, [sp, #124]	; 0x7c
  202924:	eafffece 	b	202464 <_svfprintf_r+0x179c>
  202928:	e2163001 	ands	r3, r6, #1
  20292c:	1affffa5 	bne	2027c8 <_svfprintf_r+0x1b00>
  202930:	e59dc034 	ldr	ip, [sp, #52]	; 0x34
  202934:	e58d304c 	str	r3, [sp, #76]	; 0x4c
  202938:	e1cc3fcc 	bic	r3, ip, ip, asr #31
  20293c:	eaffff1c 	b	2025b4 <_svfprintf_r+0x18ec>
  202940:	e35b0000 	cmp	fp, #0
  202944:	1a000003 	bne	202958 <_svfprintf_r+0x1c90>
  202948:	e3160001 	tst	r6, #1
  20294c:	03a03001 	moveq	r3, #1
  202950:	058d3034 	streq	r3, [sp, #52]	; 0x34
  202954:	0affff16 	beq	2025b4 <_svfprintf_r+0x18ec>
  202958:	e28bb002 	add	fp, fp, #2
  20295c:	e58db034 	str	fp, [sp, #52]	; 0x34
  202960:	e1cb3fcb 	bic	r3, fp, fp, asr #31
  202964:	eaffff12 	b	2025b4 <_svfprintf_r+0x18ec>
  202968:	e59dc038 	ldr	ip, [sp, #56]	; 0x38
  20296c:	e59cb000 	ldr	fp, [ip]
  202970:	e35b0000 	cmp	fp, #0
  202974:	e28c3004 	add	r3, ip, #4
  202978:	aafffaaa 	bge	201428 <_svfprintf_r+0x760>
  20297c:	e58d3038 	str	r3, [sp, #56]	; 0x38
  202980:	e3e0b000 	mvn	fp, #0
  202984:	eafff918 	b	200dec <_svfprintf_r+0x124>
  202988:	e28d3086 	add	r3, sp, #134	; 0x86
  20298c:	eaffff85 	b	2027a8 <_svfprintf_r+0x1ae0>
  202990:	e59dc040 	ldr	ip, [sp, #64]	; 0x40
  202994:	e3a0300c 	mov	r3, #12
  202998:	e58c3000 	str	r3, [ip]
  20299c:	e3e00000 	mvn	r0, #0
  2029a0:	eafff989 	b	200fcc <_svfprintf_r+0x304>
  2029a4:	e59d307c 	ldr	r3, [sp, #124]	; 0x7c
  2029a8:	eaffff6f 	b	20276c <_svfprintf_r+0x1aa4>
  2029ac:	00000000 	andeq	r0, r0, r0

002029b0 <quorem>:
  2029b0:	e92d4ff0 	push	{r4, r5, r6, r7, r8, r9, sl, fp, lr}
  2029b4:	e5903010 	ldr	r3, [r0, #16]
  2029b8:	e5915010 	ldr	r5, [r1, #16]
  2029bc:	e1550003 	cmp	r5, r3
  2029c0:	e1a09000 	mov	r9, r0
  2029c4:	e24dd00c 	sub	sp, sp, #12
  2029c8:	e1a0a001 	mov	sl, r1
  2029cc:	c3a00000 	movgt	r0, #0
  2029d0:	ca00006b 	bgt	202b84 <quorem+0x1d4>
  2029d4:	e2455001 	sub	r5, r5, #1
  2029d8:	e2814014 	add	r4, r1, #20
  2029dc:	e7941105 	ldr	r1, [r4, r5, lsl #2]
  2029e0:	e2898014 	add	r8, r9, #20
  2029e4:	e2811001 	add	r1, r1, #1
  2029e8:	e7980105 	ldr	r0, [r8, r5, lsl #2]
  2029ec:	eb001436 	bl	207acc <__aeabi_uidiv>
  2029f0:	e1a02105 	lsl	r2, r5, #2
  2029f4:	e0883002 	add	r3, r8, r2
  2029f8:	e2507000 	subs	r7, r0, #0
  2029fc:	e58d2000 	str	r2, [sp]
  202a00:	e0846002 	add	r6, r4, r2
  202a04:	e58d3004 	str	r3, [sp, #4]
  202a08:	0a000030 	beq	202ad0 <quorem+0x120>
  202a0c:	e3a0c000 	mov	ip, #0
  202a10:	e1a0000c 	mov	r0, ip
  202a14:	e1a02004 	mov	r2, r4
  202a18:	e1a03008 	mov	r3, r8
  202a1c:	e492e004 	ldr	lr, [r2], #4
  202a20:	e1a0b80e 	lsl	fp, lr, #16
  202a24:	e1a0182e 	lsr	r1, lr, #16
  202a28:	e1a0b82b 	lsr	fp, fp, #16
  202a2c:	e02bcb97 	mla	fp, r7, fp, ip
  202a30:	e0010197 	mul	r1, r7, r1
  202a34:	e593e000 	ldr	lr, [r3]
  202a38:	e081182b 	add	r1, r1, fp, lsr #16
  202a3c:	e1a0b80b 	lsl	fp, fp, #16
  202a40:	e040082b 	sub	r0, r0, fp, lsr #16
  202a44:	e1a0c80e 	lsl	ip, lr, #16
  202a48:	e1a0b801 	lsl	fp, r1, #16
  202a4c:	e080c82c 	add	ip, r0, ip, lsr #16
  202a50:	e1a0082b 	lsr	r0, fp, #16
  202a54:	e060082e 	rsb	r0, r0, lr, lsr #16
  202a58:	e1a0b80c 	lsl	fp, ip, #16
  202a5c:	e080084c 	add	r0, r0, ip, asr #16
  202a60:	e1a0c82b 	lsr	ip, fp, #16
  202a64:	e18cc800 	orr	ip, ip, r0, lsl #16
  202a68:	e1560002 	cmp	r6, r2
  202a6c:	e483c004 	str	ip, [r3], #4
  202a70:	e1a00840 	asr	r0, r0, #16
  202a74:	e1a0c821 	lsr	ip, r1, #16
  202a78:	2affffe7 	bcs	202a1c <quorem+0x6c>
  202a7c:	e59d2000 	ldr	r2, [sp]
  202a80:	e7983002 	ldr	r3, [r8, r2]
  202a84:	e3530000 	cmp	r3, #0
  202a88:	1a000010 	bne	202ad0 <quorem+0x120>
  202a8c:	e59d2004 	ldr	r2, [sp, #4]
  202a90:	e2423004 	sub	r3, r2, #4
  202a94:	e1580003 	cmp	r8, r3
  202a98:	2a00000b 	bcs	202acc <quorem+0x11c>
  202a9c:	e5123004 	ldr	r3, [r2, #-4]
  202aa0:	e3530000 	cmp	r3, #0
  202aa4:	1a000008 	bne	202acc <quorem+0x11c>
  202aa8:	e2423008 	sub	r3, r2, #8
  202aac:	ea000003 	b	202ac0 <quorem+0x110>
  202ab0:	e5932000 	ldr	r2, [r3]
  202ab4:	e3520000 	cmp	r2, #0
  202ab8:	e2433004 	sub	r3, r3, #4
  202abc:	1a000002 	bne	202acc <quorem+0x11c>
  202ac0:	e1580003 	cmp	r8, r3
  202ac4:	e2455001 	sub	r5, r5, #1
  202ac8:	3afffff8 	bcc	202ab0 <quorem+0x100>
  202acc:	e5895010 	str	r5, [r9, #16]
  202ad0:	e1a0100a 	mov	r1, sl
  202ad4:	e1a00009 	mov	r0, r9
  202ad8:	eb000a4a 	bl	205408 <__mcmp>
  202adc:	e3500000 	cmp	r0, #0
  202ae0:	ba000026 	blt	202b80 <quorem+0x1d0>
  202ae4:	e2877001 	add	r7, r7, #1
  202ae8:	e1a03008 	mov	r3, r8
  202aec:	e3a02000 	mov	r2, #0
  202af0:	e494c004 	ldr	ip, [r4], #4
  202af4:	e5930000 	ldr	r0, [r3]
  202af8:	e1a0180c 	lsl	r1, ip, #16
  202afc:	e0422821 	sub	r2, r2, r1, lsr #16
  202b00:	e1a01800 	lsl	r1, r0, #16
  202b04:	e0821821 	add	r1, r2, r1, lsr #16
  202b08:	e1a0c82c 	lsr	ip, ip, #16
  202b0c:	e06c2820 	rsb	r2, ip, r0, lsr #16
  202b10:	e1a0a801 	lsl	sl, r1, #16
  202b14:	e0822841 	add	r2, r2, r1, asr #16
  202b18:	e1a0182a 	lsr	r1, sl, #16
  202b1c:	e1811802 	orr	r1, r1, r2, lsl #16
  202b20:	e1560004 	cmp	r6, r4
  202b24:	e4831004 	str	r1, [r3], #4
  202b28:	e1a02842 	asr	r2, r2, #16
  202b2c:	2affffef 	bcs	202af0 <quorem+0x140>
  202b30:	e7983105 	ldr	r3, [r8, r5, lsl #2]
  202b34:	e3530000 	cmp	r3, #0
  202b38:	e0883105 	add	r3, r8, r5, lsl #2
  202b3c:	1a00000f 	bne	202b80 <quorem+0x1d0>
  202b40:	e2432004 	sub	r2, r3, #4
  202b44:	e1580002 	cmp	r8, r2
  202b48:	2a00000b 	bcs	202b7c <quorem+0x1cc>
  202b4c:	e5132004 	ldr	r2, [r3, #-4]
  202b50:	e3520000 	cmp	r2, #0
  202b54:	1a000008 	bne	202b7c <quorem+0x1cc>
  202b58:	e2433008 	sub	r3, r3, #8
  202b5c:	ea000003 	b	202b70 <quorem+0x1c0>
  202b60:	e5932000 	ldr	r2, [r3]
  202b64:	e3520000 	cmp	r2, #0
  202b68:	e2433004 	sub	r3, r3, #4
  202b6c:	1a000002 	bne	202b7c <quorem+0x1cc>
  202b70:	e1580003 	cmp	r8, r3
  202b74:	e2455001 	sub	r5, r5, #1
  202b78:	3afffff8 	bcc	202b60 <quorem+0x1b0>
  202b7c:	e5895010 	str	r5, [r9, #16]
  202b80:	e1a00007 	mov	r0, r7
  202b84:	e28dd00c 	add	sp, sp, #12
  202b88:	e8bd4ff0 	pop	{r4, r5, r6, r7, r8, r9, sl, fp, lr}
  202b8c:	e12fff1e 	bx	lr

00202b90 <_dtoa_r>:
  202b90:	e92d4ff0 	push	{r4, r5, r6, r7, r8, r9, sl, fp, lr}
  202b94:	e5901040 	ldr	r1, [r0, #64]	; 0x40
  202b98:	e24dd074 	sub	sp, sp, #116	; 0x74
  202b9c:	e3510000 	cmp	r1, #0
  202ba0:	e1a04000 	mov	r4, r0
  202ba4:	e1a0a002 	mov	sl, r2
  202ba8:	e1a0b003 	mov	fp, r3
  202bac:	e59d50a4 	ldr	r5, [sp, #164]	; 0xa4
  202bb0:	0a000007 	beq	202bd4 <_dtoa_r+0x44>
  202bb4:	e5903044 	ldr	r3, [r0, #68]	; 0x44
  202bb8:	e3a02001 	mov	r2, #1
  202bbc:	e1a02312 	lsl	r2, r2, r3
  202bc0:	e5813004 	str	r3, [r1, #4]
  202bc4:	e5812008 	str	r2, [r1, #8]
  202bc8:	eb000853 	bl	204d1c <_Bfree>
  202bcc:	e3a03000 	mov	r3, #0
  202bd0:	e5843040 	str	r3, [r4, #64]	; 0x40
  202bd4:	e35b0000 	cmp	fp, #0
  202bd8:	b3a03001 	movlt	r3, #1
  202bdc:	a3a03000 	movge	r3, #0
  202be0:	b5853000 	strlt	r3, [r5]
  202be4:	a5853000 	strge	r3, [r5]
  202be8:	e59f3508 	ldr	r3, [pc, #1288]	; 2030f8 <_dtoa_r+0x568>
  202bec:	b3cb9102 	biclt	r9, fp, #-2147483648	; 0x80000000
  202bf0:	a1a0900b 	movge	r9, fp
  202bf4:	e1a02003 	mov	r2, r3
  202bf8:	e0093003 	and	r3, r9, r3
  202bfc:	b1a0b009 	movlt	fp, r9
  202c00:	e1530002 	cmp	r3, r2
  202c04:	0a000013 	beq	202c58 <_dtoa_r+0xc8>
  202c08:	e1a0000a 	mov	r0, sl
  202c0c:	e1a0100b 	mov	r1, fp
  202c10:	e3a02000 	mov	r2, #0
  202c14:	e3a03000 	mov	r3, #0
  202c18:	eb001652 	bl	208568 <__aeabi_dcmpeq>
  202c1c:	e2508000 	subs	r8, r0, #0
  202c20:	0a00001e 	beq	202ca0 <_dtoa_r+0x110>
  202c24:	e59dc0a8 	ldr	ip, [sp, #168]	; 0xa8
  202c28:	e35c0000 	cmp	ip, #0
  202c2c:	e59dc0a0 	ldr	ip, [sp, #160]	; 0xa0
  202c30:	e3a03001 	mov	r3, #1
  202c34:	e58c3000 	str	r3, [ip]
  202c38:	0a00009c 	beq	202eb0 <_dtoa_r+0x320>
  202c3c:	e59f04b8 	ldr	r0, [pc, #1208]	; 2030fc <_dtoa_r+0x56c>
  202c40:	e59dc0a8 	ldr	ip, [sp, #168]	; 0xa8
  202c44:	e58c0000 	str	r0, [ip]
  202c48:	e2400001 	sub	r0, r0, #1
  202c4c:	e28dd074 	add	sp, sp, #116	; 0x74
  202c50:	e8bd4ff0 	pop	{r4, r5, r6, r7, r8, r9, sl, fp, lr}
  202c54:	e12fff1e 	bx	lr
  202c58:	e59f34a0 	ldr	r3, [pc, #1184]	; 203100 <_dtoa_r+0x570>
  202c5c:	e59dc0a0 	ldr	ip, [sp, #160]	; 0xa0
  202c60:	e35a0000 	cmp	sl, #0
  202c64:	e58c3000 	str	r3, [ip]
  202c68:	0a00007e 	beq	202e68 <_dtoa_r+0x2d8>
  202c6c:	e59f0490 	ldr	r0, [pc, #1168]	; 203104 <_dtoa_r+0x574>
  202c70:	e59dc0a8 	ldr	ip, [sp, #168]	; 0xa8
  202c74:	e35c0000 	cmp	ip, #0
  202c78:	0afffff3 	beq	202c4c <_dtoa_r+0xbc>
  202c7c:	e5d03003 	ldrb	r3, [r0, #3]
  202c80:	e59dc0a8 	ldr	ip, [sp, #168]	; 0xa8
  202c84:	e3530000 	cmp	r3, #0
  202c88:	12803008 	addne	r3, r0, #8
  202c8c:	02803003 	addeq	r3, r0, #3
  202c90:	e58c3000 	str	r3, [ip]
  202c94:	e28dd074 	add	sp, sp, #116	; 0x74
  202c98:	e8bd4ff0 	pop	{r4, r5, r6, r7, r8, r9, sl, fp, lr}
  202c9c:	e12fff1e 	bx	lr
  202ca0:	e28d206c 	add	r2, sp, #108	; 0x6c
  202ca4:	e28d3068 	add	r3, sp, #104	; 0x68
  202ca8:	e88d000c 	stm	sp, {r2, r3}
  202cac:	e1a00004 	mov	r0, r4
  202cb0:	e1a0200a 	mov	r2, sl
  202cb4:	e1a0300b 	mov	r3, fp
  202cb8:	eb000a8a 	bl	2056e8 <__d2b>
  202cbc:	e1b05a29 	lsrs	r5, r9, #20
  202cc0:	e58d0030 	str	r0, [sp, #48]	; 0x30
  202cc4:	1a00006f 	bne	202e88 <_dtoa_r+0x2f8>
  202cc8:	e59d8068 	ldr	r8, [sp, #104]	; 0x68
  202ccc:	e59d506c 	ldr	r5, [sp, #108]	; 0x6c
  202cd0:	e3e03e41 	mvn	r3, #1040	; 0x410
  202cd4:	e0885005 	add	r5, r8, r5
  202cd8:	e1550003 	cmp	r5, r3
  202cdc:	a2850e41 	addge	r0, r5, #1040	; 0x410
  202ce0:	a2800002 	addge	r0, r0, #2
  202ce4:	a1a0003a 	lsrge	r0, sl, r0
  202ce8:	b59f0418 	ldrlt	r0, [pc, #1048]	; 203108 <_dtoa_r+0x578>
  202cec:	a283301f 	addge	r3, r3, #31
  202cf0:	a0653003 	rsbge	r3, r5, r3
  202cf4:	b0650000 	rsblt	r0, r5, r0
  202cf8:	a1800319 	orrge	r0, r0, r9, lsl r3
  202cfc:	b1a0001a 	lsllt	r0, sl, r0
  202d00:	eb00147e 	bl	207f00 <__aeabi_ui2d>
  202d04:	e3a0c001 	mov	ip, #1
  202d08:	e58dc05c 	str	ip, [sp, #92]	; 0x5c
  202d0c:	e2455001 	sub	r5, r5, #1
  202d10:	e241161f 	sub	r1, r1, #32505856	; 0x1f00000
  202d14:	e3a02000 	mov	r2, #0
  202d18:	e59f33ec 	ldr	r3, [pc, #1004]	; 20310c <_dtoa_r+0x57c>
  202d1c:	eb0013b2 	bl	207bec <__aeabi_dsub>
  202d20:	e28f3fee 	add	r3, pc, #952	; 0x3b8
  202d24:	e893000c 	ldm	r3, {r2, r3}
  202d28:	eb0014b4 	bl	208000 <__aeabi_dmul>
  202d2c:	e28f3fed 	add	r3, pc, #948	; 0x3b4
  202d30:	e893000c 	ldm	r3, {r2, r3}
  202d34:	eb0013ad 	bl	207bf0 <__adddf3>
  202d38:	e1a06000 	mov	r6, r0
  202d3c:	e1a00005 	mov	r0, r5
  202d40:	e1a07001 	mov	r7, r1
  202d44:	eb001476 	bl	207f24 <__aeabi_i2d>
  202d48:	e28f3e3a 	add	r3, pc, #928	; 0x3a0
  202d4c:	e893000c 	ldm	r3, {r2, r3}
  202d50:	eb0014aa 	bl	208000 <__aeabi_dmul>
  202d54:	e1a02000 	mov	r2, r0
  202d58:	e1a03001 	mov	r3, r1
  202d5c:	e1a00006 	mov	r0, r6
  202d60:	e1a01007 	mov	r1, r7
  202d64:	eb0013a1 	bl	207bf0 <__adddf3>
  202d68:	e1a06000 	mov	r6, r0
  202d6c:	e1a07001 	mov	r7, r1
  202d70:	eb00161a 	bl	2085e0 <__aeabi_d2iz>
  202d74:	e1a01007 	mov	r1, r7
  202d78:	e58d0018 	str	r0, [sp, #24]
  202d7c:	e3a02000 	mov	r2, #0
  202d80:	e1a00006 	mov	r0, r6
  202d84:	e3a03000 	mov	r3, #0
  202d88:	eb0015fc 	bl	208580 <__aeabi_dcmplt>
  202d8c:	e3500000 	cmp	r0, #0
  202d90:	1a00019a 	bne	203400 <_dtoa_r+0x870>
  202d94:	e59dc018 	ldr	ip, [sp, #24]
  202d98:	e35c0016 	cmp	ip, #22
  202d9c:	83a0c001 	movhi	ip, #1
  202da0:	858dc044 	strhi	ip, [sp, #68]	; 0x44
  202da4:	8a00000c 	bhi	202ddc <_dtoa_r+0x24c>
  202da8:	e59f3370 	ldr	r3, [pc, #880]	; 203120 <_dtoa_r+0x590>
  202dac:	e083318c 	add	r3, r3, ip, lsl #3
  202db0:	e8930003 	ldm	r3, {r0, r1}
  202db4:	e1a0200a 	mov	r2, sl
  202db8:	e1a0300b 	mov	r3, fp
  202dbc:	eb001601 	bl	2085c8 <__aeabi_dcmpgt>
  202dc0:	e3500000 	cmp	r0, #0
  202dc4:	159dc018 	ldrne	ip, [sp, #24]
  202dc8:	124cc001 	subne	ip, ip, #1
  202dcc:	158dc018 	strne	ip, [sp, #24]
  202dd0:	13a0c000 	movne	ip, #0
  202dd4:	158dc044 	strne	ip, [sp, #68]	; 0x44
  202dd8:	058d0044 	streq	r0, [sp, #68]	; 0x44
  202ddc:	e0655008 	rsb	r5, r5, r8
  202de0:	e2555001 	subs	r5, r5, #1
  202de4:	4265c000 	rsbmi	ip, r5, #0
  202de8:	458dc02c 	strmi	ip, [sp, #44]	; 0x2c
  202dec:	53a0c000 	movpl	ip, #0
  202df0:	43a0c000 	movmi	ip, #0
  202df4:	558dc02c 	strpl	ip, [sp, #44]	; 0x2c
  202df8:	e58d5024 	str	r5, [sp, #36]	; 0x24
  202dfc:	458dc024 	strmi	ip, [sp, #36]	; 0x24
  202e00:	e59dc018 	ldr	ip, [sp, #24]
  202e04:	e35c0000 	cmp	ip, #0
  202e08:	ba000186 	blt	203428 <_dtoa_r+0x898>
  202e0c:	e59d1024 	ldr	r1, [sp, #36]	; 0x24
  202e10:	e58dc040 	str	ip, [sp, #64]	; 0x40
  202e14:	e081100c 	add	r1, r1, ip
  202e18:	e3a0c000 	mov	ip, #0
  202e1c:	e58d1024 	str	r1, [sp, #36]	; 0x24
  202e20:	e58dc034 	str	ip, [sp, #52]	; 0x34
  202e24:	e59dc098 	ldr	ip, [sp, #152]	; 0x98
  202e28:	e35c0009 	cmp	ip, #9
  202e2c:	8a000021 	bhi	202eb8 <_dtoa_r+0x328>
  202e30:	e35c0005 	cmp	ip, #5
  202e34:	c24cc004 	subgt	ip, ip, #4
  202e38:	c58dc098 	strgt	ip, [sp, #152]	; 0x98
  202e3c:	e59dc098 	ldr	ip, [sp, #152]	; 0x98
  202e40:	e24c3002 	sub	r3, ip, #2
  202e44:	c3a05000 	movgt	r5, #0
  202e48:	d3a05001 	movle	r5, #1
  202e4c:	e3530003 	cmp	r3, #3
  202e50:	979ff103 	ldrls	pc, [pc, r3, lsl #2]
  202e54:	ea000019 	b	202ec0 <_dtoa_r+0x330>
  202e58:	002034d0 	.word	0x002034d0
  202e5c:	00203828 	.word	0x00203828
  202e60:	00203864 	.word	0x00203864
  202e64:	00203ebc 	.word	0x00203ebc
  202e68:	e3c904ff 	bic	r0, r9, #-16777216	; 0xff000000
  202e6c:	e3c0060f 	bic	r0, r0, #15728640	; 0xf00000
  202e70:	e59f2298 	ldr	r2, [pc, #664]	; 203110 <_dtoa_r+0x580>
  202e74:	e59f3288 	ldr	r3, [pc, #648]	; 203104 <_dtoa_r+0x574>
  202e78:	e3500000 	cmp	r0, #0
  202e7c:	01a00002 	moveq	r0, r2
  202e80:	11a00003 	movne	r0, r3
  202e84:	eaffff79 	b	202c70 <_dtoa_r+0xe0>
  202e88:	e3cb34ff 	bic	r3, fp, #-16777216	; 0xff000000
  202e8c:	e3c3360f 	bic	r3, r3, #15728640	; 0xf00000
  202e90:	e2455fff 	sub	r5, r5, #1020	; 0x3fc
  202e94:	e38335ff 	orr	r3, r3, #1069547520	; 0x3fc00000
  202e98:	e58d805c 	str	r8, [sp, #92]	; 0x5c
  202e9c:	e1a0000a 	mov	r0, sl
  202ea0:	e2455003 	sub	r5, r5, #3
  202ea4:	e3831603 	orr	r1, r3, #3145728	; 0x300000
  202ea8:	e59d8068 	ldr	r8, [sp, #104]	; 0x68
  202eac:	eaffff98 	b	202d14 <_dtoa_r+0x184>
  202eb0:	e59f025c 	ldr	r0, [pc, #604]	; 203114 <_dtoa_r+0x584>
  202eb4:	eaffff64 	b	202c4c <_dtoa_r+0xbc>
  202eb8:	e3a0c000 	mov	ip, #0
  202ebc:	e58dc098 	str	ip, [sp, #152]	; 0x98
  202ec0:	e3a05000 	mov	r5, #0
  202ec4:	e5845044 	str	r5, [r4, #68]	; 0x44
  202ec8:	e1a01005 	mov	r1, r5
  202ecc:	e1a00004 	mov	r0, r4
  202ed0:	eb00076e 	bl	204c90 <_Balloc>
  202ed4:	e3e0c000 	mvn	ip, #0
  202ed8:	e58dc03c 	str	ip, [sp, #60]	; 0x3c
  202edc:	e58dc028 	str	ip, [sp, #40]	; 0x28
  202ee0:	e3a0c001 	mov	ip, #1
  202ee4:	e58d0020 	str	r0, [sp, #32]
  202ee8:	e58d509c 	str	r5, [sp, #156]	; 0x9c
  202eec:	e5840040 	str	r0, [r4, #64]	; 0x40
  202ef0:	e58dc038 	str	ip, [sp, #56]	; 0x38
  202ef4:	e59d306c 	ldr	r3, [sp, #108]	; 0x6c
  202ef8:	e3530000 	cmp	r3, #0
  202efc:	ba00009b 	blt	203170 <_dtoa_r+0x5e0>
  202f00:	e59dc018 	ldr	ip, [sp, #24]
  202f04:	e35c000e 	cmp	ip, #14
  202f08:	ca000098 	bgt	203170 <_dtoa_r+0x5e0>
  202f0c:	e59d109c 	ldr	r1, [sp, #156]	; 0x9c
  202f10:	e59dc028 	ldr	ip, [sp, #40]	; 0x28
  202f14:	e1a02fa1 	lsr	r2, r1, #31
  202f18:	e35c0000 	cmp	ip, #0
  202f1c:	c3a02000 	movgt	r2, #0
  202f20:	d2022001 	andle	r2, r2, #1
  202f24:	e59f31f4 	ldr	r3, [pc, #500]	; 203120 <_dtoa_r+0x590>
  202f28:	e59dc018 	ldr	ip, [sp, #24]
  202f2c:	e083318c 	add	r3, r3, ip, lsl #3
  202f30:	e3520000 	cmp	r2, #0
  202f34:	e8930006 	ldm	r3, {r1, r2}
  202f38:	e58d1010 	str	r1, [sp, #16]
  202f3c:	e58d2014 	str	r2, [sp, #20]
  202f40:	1a000341 	bne	203c4c <_dtoa_r+0x10bc>
  202f44:	e28d3010 	add	r3, sp, #16
  202f48:	e893000c 	ldm	r3, {r2, r3}
  202f4c:	e1a0000a 	mov	r0, sl
  202f50:	e1a0100b 	mov	r1, fp
  202f54:	eb0014cd 	bl	208290 <__aeabi_ddiv>
  202f58:	eb0015a0 	bl	2085e0 <__aeabi_d2iz>
  202f5c:	e1a08000 	mov	r8, r0
  202f60:	eb0013ef 	bl	207f24 <__aeabi_i2d>
  202f64:	e28d3010 	add	r3, sp, #16
  202f68:	e893000c 	ldm	r3, {r2, r3}
  202f6c:	eb001423 	bl	208000 <__aeabi_dmul>
  202f70:	e1a03001 	mov	r3, r1
  202f74:	e1a02000 	mov	r2, r0
  202f78:	e1a0100b 	mov	r1, fp
  202f7c:	e1a0000a 	mov	r0, sl
  202f80:	eb001319 	bl	207bec <__aeabi_dsub>
  202f84:	e59dc028 	ldr	ip, [sp, #40]	; 0x28
  202f88:	e35c0001 	cmp	ip, #1
  202f8c:	e59dc020 	ldr	ip, [sp, #32]
  202f90:	e28cc001 	add	ip, ip, #1
  202f94:	e58dc058 	str	ip, [sp, #88]	; 0x58
  202f98:	e59dc020 	ldr	ip, [sp, #32]
  202f9c:	e2883030 	add	r3, r8, #48	; 0x30
  202fa0:	e1a06000 	mov	r6, r0
  202fa4:	e1a07001 	mov	r7, r1
  202fa8:	e5cc3000 	strb	r3, [ip]
  202fac:	e59d5058 	ldr	r5, [sp, #88]	; 0x58
  202fb0:	0a000035 	beq	20308c <_dtoa_r+0x4fc>
  202fb4:	e3a02000 	mov	r2, #0
  202fb8:	e59f3168 	ldr	r3, [pc, #360]	; 203128 <_dtoa_r+0x598>
  202fbc:	eb00140f 	bl	208000 <__aeabi_dmul>
  202fc0:	e3a02000 	mov	r2, #0
  202fc4:	e3a03000 	mov	r3, #0
  202fc8:	e1a06000 	mov	r6, r0
  202fcc:	e1a07001 	mov	r7, r1
  202fd0:	eb001564 	bl	208568 <__aeabi_dcmpeq>
  202fd4:	e3500000 	cmp	r0, #0
  202fd8:	1a00049a 	bne	204248 <_dtoa_r+0x16b8>
  202fdc:	e59dc020 	ldr	ip, [sp, #32]
  202fe0:	e59d1028 	ldr	r1, [sp, #40]	; 0x28
  202fe4:	e58d401c 	str	r4, [sp, #28]
  202fe8:	e08c9001 	add	r9, ip, r1
  202fec:	e28ca002 	add	sl, ip, #2
  202ff0:	e28d5010 	add	r5, sp, #16
  202ff4:	e8950030 	ldm	r5, {r4, r5}
  202ff8:	ea000008 	b	203020 <_dtoa_r+0x490>
  202ffc:	eb0013ff 	bl	208000 <__aeabi_dmul>
  203000:	e3a02000 	mov	r2, #0
  203004:	e3a03000 	mov	r3, #0
  203008:	e1a06000 	mov	r6, r0
  20300c:	e1a07001 	mov	r7, r1
  203010:	eb001554 	bl	208568 <__aeabi_dcmpeq>
  203014:	e3500000 	cmp	r0, #0
  203018:	e28aa001 	add	sl, sl, #1
  20301c:	1a000410 	bne	204064 <_dtoa_r+0x14d4>
  203020:	e1a02004 	mov	r2, r4
  203024:	e1a03005 	mov	r3, r5
  203028:	e1a00006 	mov	r0, r6
  20302c:	e1a01007 	mov	r1, r7
  203030:	eb001496 	bl	208290 <__aeabi_ddiv>
  203034:	eb001569 	bl	2085e0 <__aeabi_d2iz>
  203038:	e1a08000 	mov	r8, r0
  20303c:	eb0013b8 	bl	207f24 <__aeabi_i2d>
  203040:	e1a02004 	mov	r2, r4
  203044:	e1a03005 	mov	r3, r5
  203048:	eb0013ec 	bl	208000 <__aeabi_dmul>
  20304c:	e1a02000 	mov	r2, r0
  203050:	e1a03001 	mov	r3, r1
  203054:	e1a00006 	mov	r0, r6
  203058:	e1a01007 	mov	r1, r7
  20305c:	eb0012e2 	bl	207bec <__aeabi_dsub>
  203060:	e288c030 	add	ip, r8, #48	; 0x30
  203064:	e15a0009 	cmp	sl, r9
  203068:	e1a06000 	mov	r6, r0
  20306c:	e1a07001 	mov	r7, r1
  203070:	e3a02000 	mov	r2, #0
  203074:	e59f30ac 	ldr	r3, [pc, #172]	; 203128 <_dtoa_r+0x598>
  203078:	e54ac001 	strb	ip, [sl, #-1]
  20307c:	e1a0b00a 	mov	fp, sl
  203080:	1affffdd 	bne	202ffc <_dtoa_r+0x46c>
  203084:	e59d401c 	ldr	r4, [sp, #28]
  203088:	e1a0500a 	mov	r5, sl
  20308c:	e1a02006 	mov	r2, r6
  203090:	e1a03007 	mov	r3, r7
  203094:	e1a00006 	mov	r0, r6
  203098:	e1a01007 	mov	r1, r7
  20309c:	eb0012d3 	bl	207bf0 <__adddf3>
  2030a0:	e1a06000 	mov	r6, r0
  2030a4:	e1a07001 	mov	r7, r1
  2030a8:	e1a02006 	mov	r2, r6
  2030ac:	e28d1010 	add	r1, sp, #16
  2030b0:	e8910003 	ldm	r1, {r0, r1}
  2030b4:	e1a03007 	mov	r3, r7
  2030b8:	eb001530 	bl	208580 <__aeabi_dcmplt>
  2030bc:	e3500000 	cmp	r0, #0
  2030c0:	0a000429 	beq	20416c <_dtoa_r+0x15dc>
  2030c4:	e59dc018 	ldr	ip, [sp, #24]
  2030c8:	e58dc060 	str	ip, [sp, #96]	; 0x60
  2030cc:	e59d9020 	ldr	r9, [sp, #32]
  2030d0:	e5558001 	ldrb	r8, [r5, #-1]
  2030d4:	e59d1058 	ldr	r1, [sp, #88]	; 0x58
  2030d8:	ea000019 	b	203144 <_dtoa_r+0x5b4>
  2030dc:	e1a00000 	nop			; (mov r0, r0)
  2030e0:	636f4361 	.word	0x636f4361
  2030e4:	3fd287a7 	.word	0x3fd287a7
  2030e8:	8b60c8b3 	.word	0x8b60c8b3
  2030ec:	3fc68a28 	.word	0x3fc68a28
  2030f0:	509f79fb 	.word	0x509f79fb
  2030f4:	3fd34413 	.word	0x3fd34413
  2030f8:	7ff00000 	.word	0x7ff00000
  2030fc:	0020889d 	.word	0x0020889d
  203100:	0000270f 	.word	0x0000270f
  203104:	002088ac 	.word	0x002088ac
  203108:	fffffbee 	.word	0xfffffbee
  20310c:	3ff80000 	.word	0x3ff80000
  203110:	002088a0 	.word	0x002088a0
  203114:	0020889c 	.word	0x0020889c
  203118:	3ff00000 	.word	0x3ff00000
  20311c:	002087b0 	.word	0x002087b0
  203120:	002086c0 	.word	0x002086c0
  203124:	40140000 	.word	0x40140000
  203128:	40240000 	.word	0x40240000
  20312c:	401c0000 	.word	0x401c0000
  203130:	3fe00000 	.word	0x3fe00000
  203134:	e1550001 	cmp	r5, r1
  203138:	0a000392 	beq	203f88 <_dtoa_r+0x13f8>
  20313c:	e5558002 	ldrb	r8, [r5, #-2]
  203140:	e1a05003 	mov	r5, r3
  203144:	e3580039 	cmp	r8, #57	; 0x39
  203148:	e1a02005 	mov	r2, r5
  20314c:	e2453001 	sub	r3, r5, #1
  203150:	0afffff7 	beq	203134 <_dtoa_r+0x5a4>
  203154:	e59dc060 	ldr	ip, [sp, #96]	; 0x60
  203158:	e2882001 	add	r2, r8, #1
  20315c:	e58d5020 	str	r5, [sp, #32]
  203160:	e58dc018 	str	ip, [sp, #24]
  203164:	e20220ff 	and	r2, r2, #255	; 0xff
  203168:	e5c32000 	strb	r2, [r3]
  20316c:	ea00008e 	b	2033ac <_dtoa_r+0x81c>
  203170:	e59dc038 	ldr	ip, [sp, #56]	; 0x38
  203174:	e35c0000 	cmp	ip, #0
  203178:	1a0000b3 	bne	20344c <_dtoa_r+0x8bc>
  20317c:	e59d6034 	ldr	r6, [sp, #52]	; 0x34
  203180:	e59d502c 	ldr	r5, [sp, #44]	; 0x2c
  203184:	e59d8038 	ldr	r8, [sp, #56]	; 0x38
  203188:	e59dc024 	ldr	ip, [sp, #36]	; 0x24
  20318c:	e35c0000 	cmp	ip, #0
  203190:	c3550000 	cmpgt	r5, #0
  203194:	da000009 	ble	2031c0 <_dtoa_r+0x630>
  203198:	e1a0300c 	mov	r3, ip
  20319c:	e59dc02c 	ldr	ip, [sp, #44]	; 0x2c
  2031a0:	e1530005 	cmp	r3, r5
  2031a4:	a1a03005 	movge	r3, r5
  2031a8:	e063c00c 	rsb	ip, r3, ip
  2031ac:	e58dc02c 	str	ip, [sp, #44]	; 0x2c
  2031b0:	e59dc024 	ldr	ip, [sp, #36]	; 0x24
  2031b4:	e063c00c 	rsb	ip, r3, ip
  2031b8:	e58dc024 	str	ip, [sp, #36]	; 0x24
  2031bc:	e0635005 	rsb	r5, r3, r5
  2031c0:	e59dc034 	ldr	ip, [sp, #52]	; 0x34
  2031c4:	e35c0000 	cmp	ip, #0
  2031c8:	da000015 	ble	203224 <_dtoa_r+0x694>
  2031cc:	e59dc038 	ldr	ip, [sp, #56]	; 0x38
  2031d0:	e35c0000 	cmp	ip, #0
  2031d4:	0a000347 	beq	203ef8 <_dtoa_r+0x1368>
  2031d8:	e3560000 	cmp	r6, #0
  2031dc:	da00000d 	ble	203218 <_dtoa_r+0x688>
  2031e0:	e1a01008 	mov	r1, r8
  2031e4:	e1a02006 	mov	r2, r6
  2031e8:	e1a00004 	mov	r0, r4
  2031ec:	eb000801 	bl	2051f8 <__pow5mult>
  2031f0:	e1a08000 	mov	r8, r0
  2031f4:	e1a01008 	mov	r1, r8
  2031f8:	e59d2030 	ldr	r2, [sp, #48]	; 0x30
  2031fc:	e1a00004 	mov	r0, r4
  203200:	eb000782 	bl	205010 <__multiply>
  203204:	e59d1030 	ldr	r1, [sp, #48]	; 0x30
  203208:	e1a07000 	mov	r7, r0
  20320c:	e1a00004 	mov	r0, r4
  203210:	eb0006c1 	bl	204d1c <_Bfree>
  203214:	e58d7030 	str	r7, [sp, #48]	; 0x30
  203218:	e59dc034 	ldr	ip, [sp, #52]	; 0x34
  20321c:	e05c2006 	subs	r2, ip, r6
  203220:	1a000378 	bne	204008 <_dtoa_r+0x1478>
  203224:	e1a00004 	mov	r0, r4
  203228:	e3a01001 	mov	r1, #1
  20322c:	eb00076e 	bl	204fec <__i2b>
  203230:	e59dc040 	ldr	ip, [sp, #64]	; 0x40
  203234:	e35c0000 	cmp	ip, #0
  203238:	e1a06000 	mov	r6, r0
  20323c:	da000004 	ble	203254 <_dtoa_r+0x6c4>
  203240:	e1a01000 	mov	r1, r0
  203244:	e1a0200c 	mov	r2, ip
  203248:	e1a00004 	mov	r0, r4
  20324c:	eb0007e9 	bl	2051f8 <__pow5mult>
  203250:	e1a06000 	mov	r6, r0
  203254:	e59dc098 	ldr	ip, [sp, #152]	; 0x98
  203258:	e35c0001 	cmp	ip, #1
  20325c:	da00028a 	ble	203c8c <_dtoa_r+0x10fc>
  203260:	e3a07000 	mov	r7, #0
  203264:	e59dc040 	ldr	ip, [sp, #64]	; 0x40
  203268:	e35c0000 	cmp	ip, #0
  20326c:	03a00001 	moveq	r0, #1
  203270:	1a000251 	bne	203bbc <_dtoa_r+0x102c>
  203274:	e59dc024 	ldr	ip, [sp, #36]	; 0x24
  203278:	e080300c 	add	r3, r0, ip
  20327c:	e213301f 	ands	r3, r3, #31
  203280:	0a0001a0 	beq	203908 <_dtoa_r+0xd78>
  203284:	e2632020 	rsb	r2, r3, #32
  203288:	e3520004 	cmp	r2, #4
  20328c:	da0003f9 	ble	204278 <_dtoa_r+0x16e8>
  203290:	e263301c 	rsb	r3, r3, #28
  203294:	e59dc02c 	ldr	ip, [sp, #44]	; 0x2c
  203298:	e08cc003 	add	ip, ip, r3
  20329c:	e58dc02c 	str	ip, [sp, #44]	; 0x2c
  2032a0:	e59dc024 	ldr	ip, [sp, #36]	; 0x24
  2032a4:	e08cc003 	add	ip, ip, r3
  2032a8:	e58dc024 	str	ip, [sp, #36]	; 0x24
  2032ac:	e0855003 	add	r5, r5, r3
  2032b0:	e59dc02c 	ldr	ip, [sp, #44]	; 0x2c
  2032b4:	e35c0000 	cmp	ip, #0
  2032b8:	da000004 	ble	2032d0 <_dtoa_r+0x740>
  2032bc:	e59d1030 	ldr	r1, [sp, #48]	; 0x30
  2032c0:	e1a0200c 	mov	r2, ip
  2032c4:	e1a00004 	mov	r0, r4
  2032c8:	eb00080b 	bl	2052fc <__lshift>
  2032cc:	e58d0030 	str	r0, [sp, #48]	; 0x30
  2032d0:	e59dc024 	ldr	ip, [sp, #36]	; 0x24
  2032d4:	e35c0000 	cmp	ip, #0
  2032d8:	da000004 	ble	2032f0 <_dtoa_r+0x760>
  2032dc:	e1a01006 	mov	r1, r6
  2032e0:	e1a0200c 	mov	r2, ip
  2032e4:	e1a00004 	mov	r0, r4
  2032e8:	eb000803 	bl	2052fc <__lshift>
  2032ec:	e1a06000 	mov	r6, r0
  2032f0:	e59dc044 	ldr	ip, [sp, #68]	; 0x44
  2032f4:	e35c0000 	cmp	ip, #0
  2032f8:	1a000235 	bne	203bd4 <_dtoa_r+0x1044>
  2032fc:	e59dc098 	ldr	ip, [sp, #152]	; 0x98
  203300:	e59d1028 	ldr	r1, [sp, #40]	; 0x28
  203304:	e35c0002 	cmp	ip, #2
  203308:	d3a03000 	movle	r3, #0
  20330c:	c3a03001 	movgt	r3, #1
  203310:	e3510000 	cmp	r1, #0
  203314:	c3a03000 	movgt	r3, #0
  203318:	e3530000 	cmp	r3, #0
  20331c:	0a00017b 	beq	203910 <_dtoa_r+0xd80>
  203320:	e59dc028 	ldr	ip, [sp, #40]	; 0x28
  203324:	e35c0000 	cmp	ip, #0
  203328:	1a000170 	bne	2038f0 <_dtoa_r+0xd60>
  20332c:	e1a01006 	mov	r1, r6
  203330:	e1a0300c 	mov	r3, ip
  203334:	e3a02005 	mov	r2, #5
  203338:	e1a00004 	mov	r0, r4
  20333c:	eb00067d 	bl	204d38 <__multadd>
  203340:	e1a06000 	mov	r6, r0
  203344:	e1a01006 	mov	r1, r6
  203348:	e59d0030 	ldr	r0, [sp, #48]	; 0x30
  20334c:	eb00082d 	bl	205408 <__mcmp>
  203350:	e3500000 	cmp	r0, #0
  203354:	da000165 	ble	2038f0 <_dtoa_r+0xd60>
  203358:	e59dc018 	ldr	ip, [sp, #24]
  20335c:	e28cc001 	add	ip, ip, #1
  203360:	e58dc018 	str	ip, [sp, #24]
  203364:	e59dc020 	ldr	ip, [sp, #32]
  203368:	e3a03031 	mov	r3, #49	; 0x31
  20336c:	e5cc3000 	strb	r3, [ip]
  203370:	e1a0900c 	mov	r9, ip
  203374:	e28cc001 	add	ip, ip, #1
  203378:	e58dc020 	str	ip, [sp, #32]
  20337c:	e3a05000 	mov	r5, #0
  203380:	e1a01006 	mov	r1, r6
  203384:	e1a00004 	mov	r0, r4
  203388:	eb000663 	bl	204d1c <_Bfree>
  20338c:	e3580000 	cmp	r8, #0
  203390:	0a000005 	beq	2033ac <_dtoa_r+0x81c>
  203394:	e1550008 	cmp	r5, r8
  203398:	13550000 	cmpne	r5, #0
  20339c:	1a000198 	bne	203a04 <_dtoa_r+0xe74>
  2033a0:	e1a01008 	mov	r1, r8
  2033a4:	e1a00004 	mov	r0, r4
  2033a8:	eb00065b 	bl	204d1c <_Bfree>
  2033ac:	e1a00004 	mov	r0, r4
  2033b0:	e59d1030 	ldr	r1, [sp, #48]	; 0x30
  2033b4:	eb000658 	bl	204d1c <_Bfree>
  2033b8:	e59dc018 	ldr	ip, [sp, #24]
  2033bc:	e28c3001 	add	r3, ip, #1
  2033c0:	e59dc0a8 	ldr	ip, [sp, #168]	; 0xa8
  2033c4:	e35c0000 	cmp	ip, #0
  2033c8:	e59dc020 	ldr	ip, [sp, #32]
  2033cc:	e3a02000 	mov	r2, #0
  2033d0:	e5cc2000 	strb	r2, [ip]
  2033d4:	e59dc0a0 	ldr	ip, [sp, #160]	; 0xa0
  2033d8:	01a00009 	moveq	r0, r9
  2033dc:	e58c3000 	str	r3, [ip]
  2033e0:	0afffe19 	beq	202c4c <_dtoa_r+0xbc>
  2033e4:	e59dc020 	ldr	ip, [sp, #32]
  2033e8:	e59d10a8 	ldr	r1, [sp, #168]	; 0xa8
  2033ec:	e1a00009 	mov	r0, r9
  2033f0:	e581c000 	str	ip, [r1]
  2033f4:	e28dd074 	add	sp, sp, #116	; 0x74
  2033f8:	e8bd4ff0 	pop	{r4, r5, r6, r7, r8, r9, sl, fp, lr}
  2033fc:	e12fff1e 	bx	lr
  203400:	e59d0018 	ldr	r0, [sp, #24]
  203404:	eb0012c6 	bl	207f24 <__aeabi_i2d>
  203408:	e1a02006 	mov	r2, r6
  20340c:	e1a03007 	mov	r3, r7
  203410:	eb001454 	bl	208568 <__aeabi_dcmpeq>
  203414:	e3500000 	cmp	r0, #0
  203418:	059dc018 	ldreq	ip, [sp, #24]
  20341c:	024cc001 	subeq	ip, ip, #1
  203420:	058dc018 	streq	ip, [sp, #24]
  203424:	eafffe5a 	b	202d94 <_dtoa_r+0x204>
  203428:	e59dc02c 	ldr	ip, [sp, #44]	; 0x2c
  20342c:	e59d1018 	ldr	r1, [sp, #24]
  203430:	e061c00c 	rsb	ip, r1, ip
  203434:	e58dc02c 	str	ip, [sp, #44]	; 0x2c
  203438:	e261c000 	rsb	ip, r1, #0
  20343c:	e58dc034 	str	ip, [sp, #52]	; 0x34
  203440:	e3a0c000 	mov	ip, #0
  203444:	e58dc040 	str	ip, [sp, #64]	; 0x40
  203448:	eafffe75 	b	202e24 <_dtoa_r+0x294>
  20344c:	e59dc098 	ldr	ip, [sp, #152]	; 0x98
  203450:	e35c0001 	cmp	ip, #1
  203454:	da0002f8 	ble	20403c <_dtoa_r+0x14ac>
  203458:	e59dc028 	ldr	ip, [sp, #40]	; 0x28
  20345c:	e24c6001 	sub	r6, ip, #1
  203460:	e59dc034 	ldr	ip, [sp, #52]	; 0x34
  203464:	e15c0006 	cmp	ip, r6
  203468:	b59dc034 	ldrlt	ip, [sp, #52]	; 0x34
  20346c:	b06c3006 	rsblt	r3, ip, r6
  203470:	b59dc040 	ldrlt	ip, [sp, #64]	; 0x40
  203474:	b08cc003 	addlt	ip, ip, r3
  203478:	a066600c 	rsbge	r6, r6, ip
  20347c:	b58dc040 	strlt	ip, [sp, #64]	; 0x40
  203480:	e59dc028 	ldr	ip, [sp, #40]	; 0x28
  203484:	b58d6034 	strlt	r6, [sp, #52]	; 0x34
  203488:	b3a06000 	movlt	r6, #0
  20348c:	e35c0000 	cmp	ip, #0
  203490:	b59d102c 	ldrlt	r1, [sp, #44]	; 0x2c
  203494:	a28d3028 	addge	r3, sp, #40	; 0x28
  203498:	a8930028 	ldmge	r3, {r3, r5}
  20349c:	b06c5001 	rsblt	r5, ip, r1
  2034a0:	b3a03000 	movlt	r3, #0
  2034a4:	e59dc02c 	ldr	ip, [sp, #44]	; 0x2c
  2034a8:	e08cc003 	add	ip, ip, r3
  2034ac:	e58dc02c 	str	ip, [sp, #44]	; 0x2c
  2034b0:	e59dc024 	ldr	ip, [sp, #36]	; 0x24
  2034b4:	e1a00004 	mov	r0, r4
  2034b8:	e08cc003 	add	ip, ip, r3
  2034bc:	e3a01001 	mov	r1, #1
  2034c0:	e58dc024 	str	ip, [sp, #36]	; 0x24
  2034c4:	eb0006c8 	bl	204fec <__i2b>
  2034c8:	e1a08000 	mov	r8, r0
  2034cc:	eaffff2d 	b	203188 <_dtoa_r+0x5f8>
  2034d0:	e3a0c000 	mov	ip, #0
  2034d4:	e58dc038 	str	ip, [sp, #56]	; 0x38
  2034d8:	e59d109c 	ldr	r1, [sp, #156]	; 0x9c
  2034dc:	e3510000 	cmp	r1, #0
  2034e0:	da000278 	ble	203ec8 <_dtoa_r+0x1338>
  2034e4:	e58d103c 	str	r1, [sp, #60]	; 0x3c
  2034e8:	e58d1028 	str	r1, [sp, #40]	; 0x28
  2034ec:	e351000e 	cmp	r1, #14
  2034f0:	83a05000 	movhi	r5, #0
  2034f4:	92055001 	andls	r5, r5, #1
  2034f8:	e1a0c001 	mov	ip, r1
  2034fc:	e3a01000 	mov	r1, #0
  203500:	e35c0017 	cmp	ip, #23
  203504:	e5841044 	str	r1, [r4, #68]	; 0x44
  203508:	9a000008 	bls	203530 <_dtoa_r+0x9a0>
  20350c:	e3a02001 	mov	r2, #1
  203510:	e3a03004 	mov	r3, #4
  203514:	e1a03083 	lsl	r3, r3, #1
  203518:	e2830014 	add	r0, r3, #20
  20351c:	e150000c 	cmp	r0, ip
  203520:	e1a01002 	mov	r1, r2
  203524:	e2822001 	add	r2, r2, #1
  203528:	9afffff9 	bls	203514 <_dtoa_r+0x984>
  20352c:	e5841044 	str	r1, [r4, #68]	; 0x44
  203530:	e1a00004 	mov	r0, r4
  203534:	eb0005d5 	bl	204c90 <_Balloc>
  203538:	e3550000 	cmp	r5, #0
  20353c:	e58d0020 	str	r0, [sp, #32]
  203540:	e5840040 	str	r0, [r4, #64]	; 0x40
  203544:	0afffe6a 	beq	202ef4 <_dtoa_r+0x364>
  203548:	e59dc018 	ldr	ip, [sp, #24]
  20354c:	e35c0000 	cmp	ip, #0
  203550:	e58da050 	str	sl, [sp, #80]	; 0x50
  203554:	e58db054 	str	fp, [sp, #84]	; 0x54
  203558:	da000131 	ble	203a24 <_dtoa_r+0xe94>
  20355c:	e51f2444 	ldr	r2, [pc, #-1092]	; 203120 <_dtoa_r+0x590>
  203560:	e20c300f 	and	r3, ip, #15
  203564:	e1a0524c 	asr	r5, ip, #4
  203568:	e0823183 	add	r3, r2, r3, lsl #3
  20356c:	e3150010 	tst	r5, #16
  203570:	e89300c0 	ldm	r3, {r6, r7}
  203574:	0a00011e 	beq	2039f4 <_dtoa_r+0xe64>
  203578:	e51f3464 	ldr	r3, [pc, #-1124]	; 20311c <_dtoa_r+0x58c>
  20357c:	e1a0000a 	mov	r0, sl
  203580:	e1a0100b 	mov	r1, fp
  203584:	e2833020 	add	r3, r3, #32
  203588:	e893000c 	ldm	r3, {r2, r3}
  20358c:	eb00133f 	bl	208290 <__aeabi_ddiv>
  203590:	e205500f 	and	r5, r5, #15
  203594:	e1a0a000 	mov	sl, r0
  203598:	e1a0b001 	mov	fp, r1
  20359c:	e3a08003 	mov	r8, #3
  2035a0:	e3550000 	cmp	r5, #0
  2035a4:	0a00000b 	beq	2035d8 <_dtoa_r+0xa48>
  2035a8:	e51f9494 	ldr	r9, [pc, #-1172]	; 20311c <_dtoa_r+0x58c>
  2035ac:	e1a00006 	mov	r0, r6
  2035b0:	e1a01007 	mov	r1, r7
  2035b4:	e3150001 	tst	r5, #1
  2035b8:	1899000c 	ldmne	r9, {r2, r3}
  2035bc:	12888001 	addne	r8, r8, #1
  2035c0:	1b00128e 	blne	208000 <__aeabi_dmul>
  2035c4:	e1b050c5 	asrs	r5, r5, #1
  2035c8:	e2899008 	add	r9, r9, #8
  2035cc:	1afffff8 	bne	2035b4 <_dtoa_r+0xa24>
  2035d0:	e1a06000 	mov	r6, r0
  2035d4:	e1a07001 	mov	r7, r1
  2035d8:	e1a02006 	mov	r2, r6
  2035dc:	e1a03007 	mov	r3, r7
  2035e0:	e1a0000a 	mov	r0, sl
  2035e4:	e1a0100b 	mov	r1, fp
  2035e8:	eb001328 	bl	208290 <__aeabi_ddiv>
  2035ec:	e1a06000 	mov	r6, r0
  2035f0:	e1a07001 	mov	r7, r1
  2035f4:	e59dc044 	ldr	ip, [sp, #68]	; 0x44
  2035f8:	e35c0000 	cmp	ip, #0
  2035fc:	0a000006 	beq	20361c <_dtoa_r+0xa8c>
  203600:	e1a00006 	mov	r0, r6
  203604:	e1a01007 	mov	r1, r7
  203608:	e3a02000 	mov	r2, #0
  20360c:	e51f34fc 	ldr	r3, [pc, #-1276]	; 203118 <_dtoa_r+0x588>
  203610:	eb0013da 	bl	208580 <__aeabi_dcmplt>
  203614:	e3500000 	cmp	r0, #0
  203618:	1a00023c 	bne	203f10 <_dtoa_r+0x1380>
  20361c:	e1a00008 	mov	r0, r8
  203620:	eb00123f 	bl	207f24 <__aeabi_i2d>
  203624:	e1a02006 	mov	r2, r6
  203628:	e1a03007 	mov	r3, r7
  20362c:	eb001273 	bl	208000 <__aeabi_dmul>
  203630:	e3a02000 	mov	r2, #0
  203634:	e51f3510 	ldr	r3, [pc, #-1296]	; 20312c <_dtoa_r+0x59c>
  203638:	eb00116c 	bl	207bf0 <__adddf3>
  20363c:	e59dc028 	ldr	ip, [sp, #40]	; 0x28
  203640:	e35c0000 	cmp	ip, #0
  203644:	e1a08000 	mov	r8, r0
  203648:	e241950d 	sub	r9, r1, #54525952	; 0x3400000
  20364c:	0a000093 	beq	2038a0 <_dtoa_r+0xd10>
  203650:	e59dc018 	ldr	ip, [sp, #24]
  203654:	e58dc060 	str	ip, [sp, #96]	; 0x60
  203658:	e59dc028 	ldr	ip, [sp, #40]	; 0x28
  20365c:	e59d1038 	ldr	r1, [sp, #56]	; 0x38
  203660:	e3510000 	cmp	r1, #0
  203664:	0a00010c 	beq	203a9c <_dtoa_r+0xf0c>
  203668:	e51f3550 	ldr	r3, [pc, #-1360]	; 203120 <_dtoa_r+0x590>
  20366c:	e083318c 	add	r3, r3, ip, lsl #3
  203670:	e913000c 	ldmdb	r3, {r2, r3}
  203674:	e3a00000 	mov	r0, #0
  203678:	e51f1550 	ldr	r1, [pc, #-1360]	; 203130 <_dtoa_r+0x5a0>
  20367c:	e58dc00c 	str	ip, [sp, #12]
  203680:	eb001302 	bl	208290 <__aeabi_ddiv>
  203684:	e1a02008 	mov	r2, r8
  203688:	e1a03009 	mov	r3, r9
  20368c:	eb001156 	bl	207bec <__aeabi_dsub>
  203690:	e1a0a000 	mov	sl, r0
  203694:	e1a0b001 	mov	fp, r1
  203698:	e1a00006 	mov	r0, r6
  20369c:	e1a01007 	mov	r1, r7
  2036a0:	eb0013ce 	bl	2085e0 <__aeabi_d2iz>
  2036a4:	e1a05000 	mov	r5, r0
  2036a8:	eb00121d 	bl	207f24 <__aeabi_i2d>
  2036ac:	e1a02000 	mov	r2, r0
  2036b0:	e1a03001 	mov	r3, r1
  2036b4:	e1a00006 	mov	r0, r6
  2036b8:	e1a01007 	mov	r1, r7
  2036bc:	eb00114a 	bl	207bec <__aeabi_dsub>
  2036c0:	e2855030 	add	r5, r5, #48	; 0x30
  2036c4:	e59d2020 	ldr	r2, [sp, #32]
  2036c8:	e1a06000 	mov	r6, r0
  2036cc:	e1a07001 	mov	r7, r1
  2036d0:	e20580ff 	and	r8, r5, #255	; 0xff
  2036d4:	e5c28000 	strb	r8, [r2]
  2036d8:	e1a03007 	mov	r3, r7
  2036dc:	e1a0000a 	mov	r0, sl
  2036e0:	e1a0100b 	mov	r1, fp
  2036e4:	e1a02006 	mov	r2, r6
  2036e8:	eb0013b6 	bl	2085c8 <__aeabi_dcmpgt>
  2036ec:	e59d3020 	ldr	r3, [sp, #32]
  2036f0:	e3500000 	cmp	r0, #0
  2036f4:	e2833001 	add	r3, r3, #1
  2036f8:	e58d3058 	str	r3, [sp, #88]	; 0x58
  2036fc:	e1a05003 	mov	r5, r3
  203700:	1a0002d6 	bne	204260 <_dtoa_r+0x16d0>
  203704:	e1a02006 	mov	r2, r6
  203708:	e1a03007 	mov	r3, r7
  20370c:	e3a00000 	mov	r0, #0
  203710:	e51f1600 	ldr	r1, [pc, #-1536]	; 203118 <_dtoa_r+0x588>
  203714:	eb001134 	bl	207bec <__aeabi_dsub>
  203718:	e1a02000 	mov	r2, r0
  20371c:	e1a03001 	mov	r3, r1
  203720:	e1a0000a 	mov	r0, sl
  203724:	e1a0100b 	mov	r1, fp
  203728:	eb0013a6 	bl	2085c8 <__aeabi_dcmpgt>
  20372c:	e3500000 	cmp	r0, #0
  203730:	e59dc00c 	ldr	ip, [sp, #12]
  203734:	1a000251 	bne	204080 <_dtoa_r+0x14f0>
  203738:	e35c0001 	cmp	ip, #1
  20373c:	da0000b5 	ble	203a18 <_dtoa_r+0xe88>
  203740:	e59d1020 	ldr	r1, [sp, #32]
  203744:	e081900c 	add	r9, r1, ip
  203748:	e58d9048 	str	r9, [sp, #72]	; 0x48
  20374c:	e58d4064 	str	r4, [sp, #100]	; 0x64
  203750:	e1a09005 	mov	r9, r5
  203754:	ea000008 	b	20377c <_dtoa_r+0xbec>
  203758:	eb001123 	bl	207bec <__aeabi_dsub>
  20375c:	e1a0200a 	mov	r2, sl
  203760:	e1a0300b 	mov	r3, fp
  203764:	eb001385 	bl	208580 <__aeabi_dcmplt>
  203768:	e3500000 	cmp	r0, #0
  20376c:	1a000241 	bne	204078 <_dtoa_r+0x14e8>
  203770:	e59dc048 	ldr	ip, [sp, #72]	; 0x48
  203774:	e159000c 	cmp	r9, ip
  203778:	0a0000a5 	beq	203a14 <_dtoa_r+0xe84>
  20377c:	e1a0000a 	mov	r0, sl
  203780:	e1a0100b 	mov	r1, fp
  203784:	e3a02000 	mov	r2, #0
  203788:	e51f3668 	ldr	r3, [pc, #-1640]	; 203128 <_dtoa_r+0x598>
  20378c:	eb00121b 	bl	208000 <__aeabi_dmul>
  203790:	e3a02000 	mov	r2, #0
  203794:	e51f3674 	ldr	r3, [pc, #-1652]	; 203128 <_dtoa_r+0x598>
  203798:	e1a0a000 	mov	sl, r0
  20379c:	e1a0b001 	mov	fp, r1
  2037a0:	e1a00006 	mov	r0, r6
  2037a4:	e1a01007 	mov	r1, r7
  2037a8:	eb001214 	bl	208000 <__aeabi_dmul>
  2037ac:	e1a05001 	mov	r5, r1
  2037b0:	e1a04000 	mov	r4, r0
  2037b4:	eb001389 	bl	2085e0 <__aeabi_d2iz>
  2037b8:	e1a08000 	mov	r8, r0
  2037bc:	eb0011d8 	bl	207f24 <__aeabi_i2d>
  2037c0:	e1a02000 	mov	r2, r0
  2037c4:	e1a03001 	mov	r3, r1
  2037c8:	e1a00004 	mov	r0, r4
  2037cc:	e1a01005 	mov	r1, r5
  2037d0:	eb001105 	bl	207bec <__aeabi_dsub>
  2037d4:	e2888030 	add	r8, r8, #48	; 0x30
  2037d8:	e20880ff 	and	r8, r8, #255	; 0xff
  2037dc:	e1a0200a 	mov	r2, sl
  2037e0:	e1a0300b 	mov	r3, fp
  2037e4:	e4c98001 	strb	r8, [r9], #1
  2037e8:	e1a07001 	mov	r7, r1
  2037ec:	e1a06000 	mov	r6, r0
  2037f0:	eb001362 	bl	208580 <__aeabi_dcmplt>
  2037f4:	e3500000 	cmp	r0, #0
  2037f8:	e1a02006 	mov	r2, r6
  2037fc:	e1a03007 	mov	r3, r7
  203800:	e3a00000 	mov	r0, #0
  203804:	e51f16f4 	ldr	r1, [pc, #-1780]	; 203118 <_dtoa_r+0x588>
  203808:	0affffd2 	beq	203758 <_dtoa_r+0xbc8>
  20380c:	e59dc060 	ldr	ip, [sp, #96]	; 0x60
  203810:	e1a05009 	mov	r5, r9
  203814:	e59d4064 	ldr	r4, [sp, #100]	; 0x64
  203818:	e59d9020 	ldr	r9, [sp, #32]
  20381c:	e58dc018 	str	ip, [sp, #24]
  203820:	e58d5020 	str	r5, [sp, #32]
  203824:	eafffee0 	b	2033ac <_dtoa_r+0x81c>
  203828:	e3a0c000 	mov	ip, #0
  20382c:	e58dc038 	str	ip, [sp, #56]	; 0x38
  203830:	e59d109c 	ldr	r1, [sp, #156]	; 0x9c
  203834:	e59dc018 	ldr	ip, [sp, #24]
  203838:	e081c00c 	add	ip, r1, ip
  20383c:	e58dc03c 	str	ip, [sp, #60]	; 0x3c
  203840:	e28cc001 	add	ip, ip, #1
  203844:	e35c0000 	cmp	ip, #0
  203848:	e58dc028 	str	ip, [sp, #40]	; 0x28
  20384c:	da0001a5 	ble	203ee8 <_dtoa_r+0x1358>
  203850:	e59dc028 	ldr	ip, [sp, #40]	; 0x28
  203854:	e35c000e 	cmp	ip, #14
  203858:	83a05000 	movhi	r5, #0
  20385c:	92055001 	andls	r5, r5, #1
  203860:	eaffff25 	b	2034fc <_dtoa_r+0x96c>
  203864:	e3a0c001 	mov	ip, #1
  203868:	e58dc038 	str	ip, [sp, #56]	; 0x38
  20386c:	eaffff19 	b	2034d8 <_dtoa_r+0x948>
  203870:	e1a00008 	mov	r0, r8
  203874:	eb0011aa 	bl	207f24 <__aeabi_i2d>
  203878:	e1a02000 	mov	r2, r0
  20387c:	e1a03001 	mov	r3, r1
  203880:	e1a00006 	mov	r0, r6
  203884:	e1a01007 	mov	r1, r7
  203888:	eb0011dc 	bl	208000 <__aeabi_dmul>
  20388c:	e3a02000 	mov	r2, #0
  203890:	e51f376c 	ldr	r3, [pc, #-1900]	; 20312c <_dtoa_r+0x59c>
  203894:	eb0010d5 	bl	207bf0 <__adddf3>
  203898:	e1a08000 	mov	r8, r0
  20389c:	e241950d 	sub	r9, r1, #54525952	; 0x3400000
  2038a0:	e1a00006 	mov	r0, r6
  2038a4:	e3a02000 	mov	r2, #0
  2038a8:	e51f378c 	ldr	r3, [pc, #-1932]	; 203124 <_dtoa_r+0x594>
  2038ac:	e1a01007 	mov	r1, r7
  2038b0:	eb0010cd 	bl	207bec <__aeabi_dsub>
  2038b4:	e1a02008 	mov	r2, r8
  2038b8:	e1a03009 	mov	r3, r9
  2038bc:	e1a0a000 	mov	sl, r0
  2038c0:	e1a0b001 	mov	fp, r1
  2038c4:	eb00133f 	bl	2085c8 <__aeabi_dcmpgt>
  2038c8:	e2506000 	subs	r6, r0, #0
  2038cc:	1a00006f 	bne	203a90 <_dtoa_r+0xf00>
  2038d0:	e1a02008 	mov	r2, r8
  2038d4:	e2893102 	add	r3, r9, #-2147483648	; 0x80000000
  2038d8:	e1a0000a 	mov	r0, sl
  2038dc:	e1a0100b 	mov	r1, fp
  2038e0:	eb001326 	bl	208580 <__aeabi_dcmplt>
  2038e4:	e3500000 	cmp	r0, #0
  2038e8:	0a00004a 	beq	203a18 <_dtoa_r+0xe88>
  2038ec:	e1a08006 	mov	r8, r6
  2038f0:	e59dc09c 	ldr	ip, [sp, #156]	; 0x9c
  2038f4:	e1e0c00c 	mvn	ip, ip
  2038f8:	e58dc018 	str	ip, [sp, #24]
  2038fc:	e59d9020 	ldr	r9, [sp, #32]
  203900:	e3a05000 	mov	r5, #0
  203904:	eafffe9d 	b	203380 <_dtoa_r+0x7f0>
  203908:	e3a0301c 	mov	r3, #28
  20390c:	eafffe60 	b	203294 <_dtoa_r+0x704>
  203910:	e59dc038 	ldr	ip, [sp, #56]	; 0x38
  203914:	e35c0000 	cmp	ip, #0
  203918:	1a0000ff 	bne	203d1c <_dtoa_r+0x118c>
  20391c:	e3a05000 	mov	r5, #0
  203920:	e59da028 	ldr	sl, [sp, #40]	; 0x28
  203924:	e59d9030 	ldr	r9, [sp, #48]	; 0x30
  203928:	e59db020 	ldr	fp, [sp, #32]
  20392c:	ea000005 	b	203948 <_dtoa_r+0xdb8>
  203930:	e1a01009 	mov	r1, r9
  203934:	e1a00004 	mov	r0, r4
  203938:	e3a0200a 	mov	r2, #10
  20393c:	e3a03000 	mov	r3, #0
  203940:	eb0004fc 	bl	204d38 <__multadd>
  203944:	e1a09000 	mov	r9, r0
  203948:	e1a00009 	mov	r0, r9
  20394c:	e1a01006 	mov	r1, r6
  203950:	ebfffc16 	bl	2029b0 <quorem>
  203954:	e2800030 	add	r0, r0, #48	; 0x30
  203958:	e7cb0005 	strb	r0, [fp, r5]
  20395c:	e2855001 	add	r5, r5, #1
  203960:	e155000a 	cmp	r5, sl
  203964:	bafffff1 	blt	203930 <_dtoa_r+0xda0>
  203968:	e59db020 	ldr	fp, [sp, #32]
  20396c:	e59dc028 	ldr	ip, [sp, #40]	; 0x28
  203970:	e58d9030 	str	r9, [sp, #48]	; 0x30
  203974:	e1a07000 	mov	r7, r0
  203978:	e35c0001 	cmp	ip, #1
  20397c:	a08bb00c 	addge	fp, fp, ip
  203980:	b28bb001 	addlt	fp, fp, #1
  203984:	e3a05000 	mov	r5, #0
  203988:	e59d1030 	ldr	r1, [sp, #48]	; 0x30
  20398c:	e3a02001 	mov	r2, #1
  203990:	e1a00004 	mov	r0, r4
  203994:	eb000658 	bl	2052fc <__lshift>
  203998:	e1a01006 	mov	r1, r6
  20399c:	e58d0030 	str	r0, [sp, #48]	; 0x30
  2039a0:	eb000698 	bl	205408 <__mcmp>
  2039a4:	e3500000 	cmp	r0, #0
  2039a8:	da0001d2 	ble	2040f8 <_dtoa_r+0x1568>
  2039ac:	e59dc020 	ldr	ip, [sp, #32]
  2039b0:	e28cc001 	add	ip, ip, #1
  2039b4:	e55b3001 	ldrb	r3, [fp, #-1]
  2039b8:	e58dc058 	str	ip, [sp, #88]	; 0x58
  2039bc:	e59d1058 	ldr	r1, [sp, #88]	; 0x58
  2039c0:	ea000003 	b	2039d4 <_dtoa_r+0xe44>
  2039c4:	e15b0001 	cmp	fp, r1
  2039c8:	0a000193 	beq	20401c <_dtoa_r+0x148c>
  2039cc:	e55b3002 	ldrb	r3, [fp, #-2]
  2039d0:	e1a0b002 	mov	fp, r2
  2039d4:	e3530039 	cmp	r3, #57	; 0x39
  2039d8:	e24b2001 	sub	r2, fp, #1
  2039dc:	0afffff8 	beq	2039c4 <_dtoa_r+0xe34>
  2039e0:	e2833001 	add	r3, r3, #1
  2039e4:	e59d9020 	ldr	r9, [sp, #32]
  2039e8:	e5c23000 	strb	r3, [r2]
  2039ec:	e58db020 	str	fp, [sp, #32]
  2039f0:	eafffe62 	b	203380 <_dtoa_r+0x7f0>
  2039f4:	e28db050 	add	fp, sp, #80	; 0x50
  2039f8:	e89b0c00 	ldm	fp, {sl, fp}
  2039fc:	e3a08002 	mov	r8, #2
  203a00:	eafffee6 	b	2035a0 <_dtoa_r+0xa10>
  203a04:	e1a01005 	mov	r1, r5
  203a08:	e1a00004 	mov	r0, r4
  203a0c:	eb0004c2 	bl	204d1c <_Bfree>
  203a10:	eafffe62 	b	2033a0 <_dtoa_r+0x810>
  203a14:	e59d4064 	ldr	r4, [sp, #100]	; 0x64
  203a18:	e28db050 	add	fp, sp, #80	; 0x50
  203a1c:	e89b0c00 	ldm	fp, {sl, fp}
  203a20:	eafffd33 	b	202ef4 <_dtoa_r+0x364>
  203a24:	e59dc018 	ldr	ip, [sp, #24]
  203a28:	e26c5000 	rsb	r5, ip, #0
  203a2c:	e3550000 	cmp	r5, #0
  203a30:	0a00015c 	beq	203fa8 <_dtoa_r+0x1418>
  203a34:	e51f391c 	ldr	r3, [pc, #-2332]	; 203120 <_dtoa_r+0x590>
  203a38:	e205200f 	and	r2, r5, #15
  203a3c:	e0833182 	add	r3, r3, r2, lsl #3
  203a40:	e893000c 	ldm	r3, {r2, r3}
  203a44:	e28d1050 	add	r1, sp, #80	; 0x50
  203a48:	e8910003 	ldm	r1, {r0, r1}
  203a4c:	eb00116b 	bl	208000 <__aeabi_dmul>
  203a50:	e1b05245 	asrs	r5, r5, #4
  203a54:	e1a06000 	mov	r6, r0
  203a58:	e1a07001 	mov	r7, r1
  203a5c:	0a0001fd 	beq	204258 <_dtoa_r+0x16c8>
  203a60:	e51f994c 	ldr	r9, [pc, #-2380]	; 20311c <_dtoa_r+0x58c>
  203a64:	e3a08002 	mov	r8, #2
  203a68:	e3150001 	tst	r5, #1
  203a6c:	1899000c 	ldmne	r9, {r2, r3}
  203a70:	12888001 	addne	r8, r8, #1
  203a74:	1b001161 	blne	208000 <__aeabi_dmul>
  203a78:	e1b050c5 	asrs	r5, r5, #1
  203a7c:	e2899008 	add	r9, r9, #8
  203a80:	1afffff8 	bne	203a68 <_dtoa_r+0xed8>
  203a84:	e1a06000 	mov	r6, r0
  203a88:	e1a07001 	mov	r7, r1
  203a8c:	eafffed8 	b	2035f4 <_dtoa_r+0xa64>
  203a90:	e3a06000 	mov	r6, #0
  203a94:	e1a08006 	mov	r8, r6
  203a98:	eafffe2e 	b	203358 <_dtoa_r+0x7c8>
  203a9c:	e51f1984 	ldr	r1, [pc, #-2436]	; 203120 <_dtoa_r+0x590>
  203aa0:	e24ca001 	sub	sl, ip, #1
  203aa4:	e081118a 	add	r1, r1, sl, lsl #3
  203aa8:	e1a02008 	mov	r2, r8
  203aac:	e1a03009 	mov	r3, r9
  203ab0:	e8910003 	ldm	r1, {r0, r1}
  203ab4:	e58dc00c 	str	ip, [sp, #12]
  203ab8:	eb001150 	bl	208000 <__aeabi_dmul>
  203abc:	e58d0048 	str	r0, [sp, #72]	; 0x48
  203ac0:	e58d104c 	str	r1, [sp, #76]	; 0x4c
  203ac4:	e1a01007 	mov	r1, r7
  203ac8:	e1a00006 	mov	r0, r6
  203acc:	eb0012c3 	bl	2085e0 <__aeabi_d2iz>
  203ad0:	e1a05000 	mov	r5, r0
  203ad4:	eb001112 	bl	207f24 <__aeabi_i2d>
  203ad8:	e1a02000 	mov	r2, r0
  203adc:	e1a03001 	mov	r3, r1
  203ae0:	e1a00006 	mov	r0, r6
  203ae4:	e1a01007 	mov	r1, r7
  203ae8:	eb00103f 	bl	207bec <__aeabi_dsub>
  203aec:	e59dc00c 	ldr	ip, [sp, #12]
  203af0:	e1a07001 	mov	r7, r1
  203af4:	e59d1020 	ldr	r1, [sp, #32]
  203af8:	e59d2020 	ldr	r2, [sp, #32]
  203afc:	e2855030 	add	r5, r5, #48	; 0x30
  203b00:	e2811001 	add	r1, r1, #1
  203b04:	e35c0001 	cmp	ip, #1
  203b08:	e5c25000 	strb	r5, [r2]
  203b0c:	e1a06000 	mov	r6, r0
  203b10:	e58d1058 	str	r1, [sp, #88]	; 0x58
  203b14:	e1a05001 	mov	r5, r1
  203b18:	0a00001a 	beq	203b88 <_dtoa_r+0xff8>
  203b1c:	e59d3020 	ldr	r3, [sp, #32]
  203b20:	e2439001 	sub	r9, r3, #1
  203b24:	e089900c 	add	r9, r9, ip
  203b28:	e1a05003 	mov	r5, r3
  203b2c:	e1a00006 	mov	r0, r6
  203b30:	e1a01007 	mov	r1, r7
  203b34:	e3a02000 	mov	r2, #0
  203b38:	e51f3a18 	ldr	r3, [pc, #-2584]	; 203128 <_dtoa_r+0x598>
  203b3c:	eb00112f 	bl	208000 <__aeabi_dmul>
  203b40:	e1a07001 	mov	r7, r1
  203b44:	e1a06000 	mov	r6, r0
  203b48:	eb0012a4 	bl	2085e0 <__aeabi_d2iz>
  203b4c:	e1a08000 	mov	r8, r0
  203b50:	eb0010f3 	bl	207f24 <__aeabi_i2d>
  203b54:	e2888030 	add	r8, r8, #48	; 0x30
  203b58:	e1a02000 	mov	r2, r0
  203b5c:	e1a03001 	mov	r3, r1
  203b60:	e1a00006 	mov	r0, r6
  203b64:	e1a01007 	mov	r1, r7
  203b68:	eb00101f 	bl	207bec <__aeabi_dsub>
  203b6c:	e5e58001 	strb	r8, [r5, #1]!
  203b70:	e1550009 	cmp	r5, r9
  203b74:	1affffee 	bne	203b34 <_dtoa_r+0xfa4>
  203b78:	e59dc058 	ldr	ip, [sp, #88]	; 0x58
  203b7c:	e1a06000 	mov	r6, r0
  203b80:	e1a07001 	mov	r7, r1
  203b84:	e08c500a 	add	r5, ip, sl
  203b88:	e3a02000 	mov	r2, #0
  203b8c:	e51f3a64 	ldr	r3, [pc, #-2660]	; 203130 <_dtoa_r+0x5a0>
  203b90:	e28d1048 	add	r1, sp, #72	; 0x48
  203b94:	e8910003 	ldm	r1, {r0, r1}
  203b98:	eb001014 	bl	207bf0 <__adddf3>
  203b9c:	e1a02006 	mov	r2, r6
  203ba0:	e1a03007 	mov	r3, r7
  203ba4:	eb001275 	bl	208580 <__aeabi_dcmplt>
  203ba8:	e3500000 	cmp	r0, #0
  203bac:	0a000101 	beq	203fb8 <_dtoa_r+0x1428>
  203bb0:	e59d9020 	ldr	r9, [sp, #32]
  203bb4:	e5558001 	ldrb	r8, [r5, #-1]
  203bb8:	eafffd45 	b	2030d4 <_dtoa_r+0x544>
  203bbc:	e5963010 	ldr	r3, [r6, #16]
  203bc0:	e0863103 	add	r3, r6, r3, lsl #2
  203bc4:	e5930010 	ldr	r0, [r3, #16]
  203bc8:	eb0004cb 	bl	204efc <__hi0bits>
  203bcc:	e2600020 	rsb	r0, r0, #32
  203bd0:	eafffda7 	b	203274 <_dtoa_r+0x6e4>
  203bd4:	e59d0030 	ldr	r0, [sp, #48]	; 0x30
  203bd8:	e1a01006 	mov	r1, r6
  203bdc:	eb000609 	bl	205408 <__mcmp>
  203be0:	e3500000 	cmp	r0, #0
  203be4:	aafffdc4 	bge	2032fc <_dtoa_r+0x76c>
  203be8:	e59d1030 	ldr	r1, [sp, #48]	; 0x30
  203bec:	e1a00004 	mov	r0, r4
  203bf0:	e3a0200a 	mov	r2, #10
  203bf4:	e3a03000 	mov	r3, #0
  203bf8:	eb00044e 	bl	204d38 <__multadd>
  203bfc:	e59dc038 	ldr	ip, [sp, #56]	; 0x38
  203c00:	e35c0000 	cmp	ip, #0
  203c04:	e59dc018 	ldr	ip, [sp, #24]
  203c08:	e24cc001 	sub	ip, ip, #1
  203c0c:	e58d0030 	str	r0, [sp, #48]	; 0x30
  203c10:	e58dc018 	str	ip, [sp, #24]
  203c14:	1a000030 	bne	203cdc <_dtoa_r+0x114c>
  203c18:	e59dc03c 	ldr	ip, [sp, #60]	; 0x3c
  203c1c:	e59d1098 	ldr	r1, [sp, #152]	; 0x98
  203c20:	e35c0000 	cmp	ip, #0
  203c24:	c3a03000 	movgt	r3, #0
  203c28:	d3a03001 	movle	r3, #1
  203c2c:	e3510002 	cmp	r1, #2
  203c30:	d3a03000 	movle	r3, #0
  203c34:	e3530000 	cmp	r3, #0
  203c38:	058dc028 	streq	ip, [sp, #40]	; 0x28
  203c3c:	0affff36 	beq	20391c <_dtoa_r+0xd8c>
  203c40:	e59dc03c 	ldr	ip, [sp, #60]	; 0x3c
  203c44:	e58dc028 	str	ip, [sp, #40]	; 0x28
  203c48:	eafffdb4 	b	203320 <_dtoa_r+0x790>
  203c4c:	e59dc028 	ldr	ip, [sp, #40]	; 0x28
  203c50:	e35c0000 	cmp	ip, #0
  203c54:	1a000132 	bne	204124 <_dtoa_r+0x1594>
  203c58:	e3a02000 	mov	r2, #0
  203c5c:	e51f3b40 	ldr	r3, [pc, #-2880]	; 203124 <_dtoa_r+0x594>
  203c60:	e28d1010 	add	r1, sp, #16
  203c64:	e8910003 	ldm	r1, {r0, r1}
  203c68:	eb0010e4 	bl	208000 <__aeabi_dmul>
  203c6c:	e1a0200a 	mov	r2, sl
  203c70:	e1a0300b 	mov	r3, fp
  203c74:	eb00124d 	bl	2085b0 <__aeabi_dcmpge>
  203c78:	e59d6028 	ldr	r6, [sp, #40]	; 0x28
  203c7c:	e3500000 	cmp	r0, #0
  203c80:	e1a08006 	mov	r8, r6
  203c84:	1affff19 	bne	2038f0 <_dtoa_r+0xd60>
  203c88:	eafffdb2 	b	203358 <_dtoa_r+0x7c8>
  203c8c:	e35a0000 	cmp	sl, #0
  203c90:	1afffd72 	bne	203260 <_dtoa_r+0x6d0>
  203c94:	e3cb34ff 	bic	r3, fp, #-16777216	; 0xff000000
  203c98:	e3c3360f 	bic	r3, r3, #15728640	; 0xf00000
  203c9c:	e3530000 	cmp	r3, #0
  203ca0:	11a0700a 	movne	r7, sl
  203ca4:	1afffd6e 	bne	203264 <_dtoa_r+0x6d4>
  203ca8:	e3cb7102 	bic	r7, fp, #-2147483648	; 0x80000000
  203cac:	e1a07a27 	lsr	r7, r7, #20
  203cb0:	e1a07a07 	lsl	r7, r7, #20
  203cb4:	e3570000 	cmp	r7, #0
  203cb8:	0afffd69 	beq	203264 <_dtoa_r+0x6d4>
  203cbc:	e59dc02c 	ldr	ip, [sp, #44]	; 0x2c
  203cc0:	e28cc001 	add	ip, ip, #1
  203cc4:	e58dc02c 	str	ip, [sp, #44]	; 0x2c
  203cc8:	e59dc024 	ldr	ip, [sp, #36]	; 0x24
  203ccc:	e28cc001 	add	ip, ip, #1
  203cd0:	e58dc024 	str	ip, [sp, #36]	; 0x24
  203cd4:	e3a07001 	mov	r7, #1
  203cd8:	eafffd61 	b	203264 <_dtoa_r+0x6d4>
  203cdc:	e3a03000 	mov	r3, #0
  203ce0:	e1a01008 	mov	r1, r8
  203ce4:	e1a00004 	mov	r0, r4
  203ce8:	e3a0200a 	mov	r2, #10
  203cec:	eb000411 	bl	204d38 <__multadd>
  203cf0:	e59dc03c 	ldr	ip, [sp, #60]	; 0x3c
  203cf4:	e59d1098 	ldr	r1, [sp, #152]	; 0x98
  203cf8:	e35c0000 	cmp	ip, #0
  203cfc:	c3a03000 	movgt	r3, #0
  203d00:	d3a03001 	movle	r3, #1
  203d04:	e3510002 	cmp	r1, #2
  203d08:	d3a03000 	movle	r3, #0
  203d0c:	e3530000 	cmp	r3, #0
  203d10:	e1a08000 	mov	r8, r0
  203d14:	058dc028 	streq	ip, [sp, #40]	; 0x28
  203d18:	1affffc8 	bne	203c40 <_dtoa_r+0x10b0>
  203d1c:	e3550000 	cmp	r5, #0
  203d20:	da000004 	ble	203d38 <_dtoa_r+0x11a8>
  203d24:	e1a01008 	mov	r1, r8
  203d28:	e1a02005 	mov	r2, r5
  203d2c:	e1a00004 	mov	r0, r4
  203d30:	eb000571 	bl	2052fc <__lshift>
  203d34:	e1a08000 	mov	r8, r0
  203d38:	e3570000 	cmp	r7, #0
  203d3c:	01a0c008 	moveq	ip, r8
  203d40:	1a0000f9 	bne	20412c <_dtoa_r+0x159c>
  203d44:	e59d1020 	ldr	r1, [sp, #32]
  203d48:	e59d3028 	ldr	r3, [sp, #40]	; 0x28
  203d4c:	e59d2020 	ldr	r2, [sp, #32]
  203d50:	e2811001 	add	r1, r1, #1
  203d54:	e58d1058 	str	r1, [sp, #88]	; 0x58
  203d58:	e0822003 	add	r2, r2, r3
  203d5c:	e20a1001 	and	r1, sl, #1
  203d60:	e1a07006 	mov	r7, r6
  203d64:	e58d202c 	str	r2, [sp, #44]	; 0x2c
  203d68:	e58d1028 	str	r1, [sp, #40]	; 0x28
  203d6c:	e59d5058 	ldr	r5, [sp, #88]	; 0x58
  203d70:	e1a0900c 	mov	r9, ip
  203d74:	e59d6030 	ldr	r6, [sp, #48]	; 0x30
  203d78:	ea000008 	b	203da0 <_dtoa_r+0x1210>
  203d7c:	eb0003ed 	bl	204d38 <__multadd>
  203d80:	e1a01009 	mov	r1, r9
  203d84:	e1a08000 	mov	r8, r0
  203d88:	e3a0200a 	mov	r2, #10
  203d8c:	e1a00004 	mov	r0, r4
  203d90:	e3a03000 	mov	r3, #0
  203d94:	eb0003e7 	bl	204d38 <__multadd>
  203d98:	e1a09000 	mov	r9, r0
  203d9c:	e2855001 	add	r5, r5, #1
  203da0:	e1a01007 	mov	r1, r7
  203da4:	e1a00006 	mov	r0, r6
  203da8:	ebfffb00 	bl	2029b0 <quorem>
  203dac:	e1a01008 	mov	r1, r8
  203db0:	e1a0a000 	mov	sl, r0
  203db4:	e1a00006 	mov	r0, r6
  203db8:	eb000592 	bl	205408 <__mcmp>
  203dbc:	e1a02009 	mov	r2, r9
  203dc0:	e1a0b000 	mov	fp, r0
  203dc4:	e1a01007 	mov	r1, r7
  203dc8:	e1a00004 	mov	r0, r4
  203dcc:	eb0005a5 	bl	205468 <__mdiff>
  203dd0:	e590200c 	ldr	r2, [r0, #12]
  203dd4:	e245c001 	sub	ip, r5, #1
  203dd8:	e3520000 	cmp	r2, #0
  203ddc:	e28a2030 	add	r2, sl, #48	; 0x30
  203de0:	e1a03000 	mov	r3, r0
  203de4:	e58d201c 	str	r2, [sp, #28]
  203de8:	e58dc024 	str	ip, [sp, #36]	; 0x24
  203dec:	1a000030 	bne	203eb4 <_dtoa_r+0x1324>
  203df0:	e1a01003 	mov	r1, r3
  203df4:	e1a00006 	mov	r0, r6
  203df8:	e58d300c 	str	r3, [sp, #12]
  203dfc:	eb000581 	bl	205408 <__mcmp>
  203e00:	e59d300c 	ldr	r3, [sp, #12]
  203e04:	e1a02000 	mov	r2, r0
  203e08:	e1a01003 	mov	r1, r3
  203e0c:	e1a00004 	mov	r0, r4
  203e10:	e58d200c 	str	r2, [sp, #12]
  203e14:	eb0003c0 	bl	204d1c <_Bfree>
  203e18:	e59d200c 	ldr	r2, [sp, #12]
  203e1c:	e59dc098 	ldr	ip, [sp, #152]	; 0x98
  203e20:	e192c00c 	orrs	ip, r2, ip
  203e24:	1a000002 	bne	203e34 <_dtoa_r+0x12a4>
  203e28:	e59dc028 	ldr	ip, [sp, #40]	; 0x28
  203e2c:	e35c0000 	cmp	ip, #0
  203e30:	0a0000f7 	beq	204214 <_dtoa_r+0x1684>
  203e34:	e35b0000 	cmp	fp, #0
  203e38:	ba000092 	blt	204088 <_dtoa_r+0x14f8>
  203e3c:	e59dc098 	ldr	ip, [sp, #152]	; 0x98
  203e40:	e19bc00c 	orrs	ip, fp, ip
  203e44:	1a000002 	bne	203e54 <_dtoa_r+0x12c4>
  203e48:	e59dc028 	ldr	ip, [sp, #40]	; 0x28
  203e4c:	e35c0000 	cmp	ip, #0
  203e50:	0a00008c 	beq	204088 <_dtoa_r+0x14f8>
  203e54:	e3520000 	cmp	r2, #0
  203e58:	ca0000d1 	bgt	2041a4 <_dtoa_r+0x1614>
  203e5c:	e59dc02c 	ldr	ip, [sp, #44]	; 0x2c
  203e60:	e59d201c 	ldr	r2, [sp, #28]
  203e64:	e155000c 	cmp	r5, ip
  203e68:	e5452001 	strb	r2, [r5, #-1]
  203e6c:	e1a0b005 	mov	fp, r5
  203e70:	0a0000da 	beq	2041e0 <_dtoa_r+0x1650>
  203e74:	e1a01006 	mov	r1, r6
  203e78:	e3a0200a 	mov	r2, #10
  203e7c:	e3a03000 	mov	r3, #0
  203e80:	e1a00004 	mov	r0, r4
  203e84:	eb0003ab 	bl	204d38 <__multadd>
  203e88:	e1580009 	cmp	r8, r9
  203e8c:	e1a06000 	mov	r6, r0
  203e90:	e1a01008 	mov	r1, r8
  203e94:	e1a00004 	mov	r0, r4
  203e98:	e3a0200a 	mov	r2, #10
  203e9c:	e3a03000 	mov	r3, #0
  203ea0:	1affffb5 	bne	203d7c <_dtoa_r+0x11ec>
  203ea4:	eb0003a3 	bl	204d38 <__multadd>
  203ea8:	e1a08000 	mov	r8, r0
  203eac:	e1a09000 	mov	r9, r0
  203eb0:	eaffffb9 	b	203d9c <_dtoa_r+0x120c>
  203eb4:	e3a02001 	mov	r2, #1
  203eb8:	eaffffd2 	b	203e08 <_dtoa_r+0x1278>
  203ebc:	e3a0c001 	mov	ip, #1
  203ec0:	e58dc038 	str	ip, [sp, #56]	; 0x38
  203ec4:	eafffe59 	b	203830 <_dtoa_r+0xca0>
  203ec8:	e3a03001 	mov	r3, #1
  203ecc:	e58d309c 	str	r3, [sp, #156]	; 0x9c
  203ed0:	e58d303c 	str	r3, [sp, #60]	; 0x3c
  203ed4:	e58d3028 	str	r3, [sp, #40]	; 0x28
  203ed8:	e3a01000 	mov	r1, #0
  203edc:	e0035005 	and	r5, r3, r5
  203ee0:	e5841044 	str	r1, [r4, #68]	; 0x44
  203ee4:	eafffd91 	b	203530 <_dtoa_r+0x9a0>
  203ee8:	e35c000e 	cmp	ip, #14
  203eec:	83a03000 	movhi	r3, #0
  203ef0:	93a03001 	movls	r3, #1
  203ef4:	eafffff7 	b	203ed8 <_dtoa_r+0x1348>
  203ef8:	e28d1030 	add	r1, sp, #48	; 0x30
  203efc:	e8910006 	ldm	r1, {r1, r2}
  203f00:	e1a00004 	mov	r0, r4
  203f04:	eb0004bb 	bl	2051f8 <__pow5mult>
  203f08:	e58d0030 	str	r0, [sp, #48]	; 0x30
  203f0c:	eafffcc4 	b	203224 <_dtoa_r+0x694>
  203f10:	e59dc028 	ldr	ip, [sp, #40]	; 0x28
  203f14:	e35c0000 	cmp	ip, #0
  203f18:	0afffe54 	beq	203870 <_dtoa_r+0xce0>
  203f1c:	e59dc03c 	ldr	ip, [sp, #60]	; 0x3c
  203f20:	e35c0000 	cmp	ip, #0
  203f24:	dafffebb 	ble	203a18 <_dtoa_r+0xe88>
  203f28:	e3a02000 	mov	r2, #0
  203f2c:	e51f3e0c 	ldr	r3, [pc, #-3596]	; 203128 <_dtoa_r+0x598>
  203f30:	e1a00006 	mov	r0, r6
  203f34:	e1a01007 	mov	r1, r7
  203f38:	eb001030 	bl	208000 <__aeabi_dmul>
  203f3c:	e1a06000 	mov	r6, r0
  203f40:	e2880001 	add	r0, r8, #1
  203f44:	e1a07001 	mov	r7, r1
  203f48:	eb000ff5 	bl	207f24 <__aeabi_i2d>
  203f4c:	e1a02000 	mov	r2, r0
  203f50:	e1a03001 	mov	r3, r1
  203f54:	e1a00006 	mov	r0, r6
  203f58:	e1a01007 	mov	r1, r7
  203f5c:	eb001027 	bl	208000 <__aeabi_dmul>
  203f60:	e3a02000 	mov	r2, #0
  203f64:	e51f3e40 	ldr	r3, [pc, #-3648]	; 20312c <_dtoa_r+0x59c>
  203f68:	eb000f20 	bl	207bf0 <__adddf3>
  203f6c:	e59dc018 	ldr	ip, [sp, #24]
  203f70:	e24cc001 	sub	ip, ip, #1
  203f74:	e58dc060 	str	ip, [sp, #96]	; 0x60
  203f78:	e1a08000 	mov	r8, r0
  203f7c:	e241950d 	sub	r9, r1, #54525952	; 0x3400000
  203f80:	e59dc03c 	ldr	ip, [sp, #60]	; 0x3c
  203f84:	eafffdb4 	b	20365c <_dtoa_r+0xacc>
  203f88:	e59dc060 	ldr	ip, [sp, #96]	; 0x60
  203f8c:	e58d2020 	str	r2, [sp, #32]
  203f90:	e28cc001 	add	ip, ip, #1
  203f94:	e3a02030 	mov	r2, #48	; 0x30
  203f98:	e5c32000 	strb	r2, [r3]
  203f9c:	e58dc018 	str	ip, [sp, #24]
  203fa0:	e3a02031 	mov	r2, #49	; 0x31
  203fa4:	eafffc6f 	b	203168 <_dtoa_r+0x5d8>
  203fa8:	e28d7050 	add	r7, sp, #80	; 0x50
  203fac:	e89700c0 	ldm	r7, {r6, r7}
  203fb0:	e3a08002 	mov	r8, #2
  203fb4:	eafffd8e 	b	2035f4 <_dtoa_r+0xa64>
  203fb8:	e28d3048 	add	r3, sp, #72	; 0x48
  203fbc:	e893000c 	ldm	r3, {r2, r3}
  203fc0:	e3a00000 	mov	r0, #0
  203fc4:	e51f1e9c 	ldr	r1, [pc, #-3740]	; 203130 <_dtoa_r+0x5a0>
  203fc8:	eb000f07 	bl	207bec <__aeabi_dsub>
  203fcc:	e1a02006 	mov	r2, r6
  203fd0:	e1a03007 	mov	r3, r7
  203fd4:	eb00117b 	bl	2085c8 <__aeabi_dcmpgt>
  203fd8:	e3500000 	cmp	r0, #0
  203fdc:	0afffe8d 	beq	203a18 <_dtoa_r+0xe88>
  203fe0:	e5552001 	ldrb	r2, [r5, #-1]
  203fe4:	e3520030 	cmp	r2, #48	; 0x30
  203fe8:	e1a03005 	mov	r3, r5
  203fec:	e2455001 	sub	r5, r5, #1
  203ff0:	0afffffa 	beq	203fe0 <_dtoa_r+0x1450>
  203ff4:	e59dc060 	ldr	ip, [sp, #96]	; 0x60
  203ff8:	e59d9020 	ldr	r9, [sp, #32]
  203ffc:	e58dc018 	str	ip, [sp, #24]
  204000:	e58d3020 	str	r3, [sp, #32]
  204004:	eafffce8 	b	2033ac <_dtoa_r+0x81c>
  204008:	e59d1030 	ldr	r1, [sp, #48]	; 0x30
  20400c:	e1a00004 	mov	r0, r4
  204010:	eb000478 	bl	2051f8 <__pow5mult>
  204014:	e58d0030 	str	r0, [sp, #48]	; 0x30
  204018:	eafffc81 	b	203224 <_dtoa_r+0x694>
  20401c:	e59dc018 	ldr	ip, [sp, #24]
  204020:	e3a03031 	mov	r3, #49	; 0x31
  204024:	e28cc001 	add	ip, ip, #1
  204028:	e59d9020 	ldr	r9, [sp, #32]
  20402c:	e58dc018 	str	ip, [sp, #24]
  204030:	e58db020 	str	fp, [sp, #32]
  204034:	e5c23000 	strb	r3, [r2]
  204038:	eafffcd0 	b	203380 <_dtoa_r+0x7f0>
  20403c:	e59dc05c 	ldr	ip, [sp, #92]	; 0x5c
  204040:	e35c0000 	cmp	ip, #0
  204044:	059d3068 	ldreq	r3, [sp, #104]	; 0x68
  204048:	12833e43 	addne	r3, r3, #1072	; 0x430
  20404c:	12833003 	addne	r3, r3, #3
  204050:	159d6034 	ldrne	r6, [sp, #52]	; 0x34
  204054:	059d6034 	ldreq	r6, [sp, #52]	; 0x34
  204058:	02633036 	rsbeq	r3, r3, #54	; 0x36
  20405c:	e59d502c 	ldr	r5, [sp, #44]	; 0x2c
  204060:	eafffd0f 	b	2034a4 <_dtoa_r+0x914>
  204064:	e59d401c 	ldr	r4, [sp, #28]
  204068:	e1a0500b 	mov	r5, fp
  20406c:	e59d9020 	ldr	r9, [sp, #32]
  204070:	e58d5020 	str	r5, [sp, #32]
  204074:	eafffccc 	b	2033ac <_dtoa_r+0x81c>
  204078:	e59d4064 	ldr	r4, [sp, #100]	; 0x64
  20407c:	e1a05009 	mov	r5, r9
  204080:	e59d9020 	ldr	r9, [sp, #32]
  204084:	eafffc12 	b	2030d4 <_dtoa_r+0x544>
  204088:	e3520000 	cmp	r2, #0
  20408c:	e58d6030 	str	r6, [sp, #48]	; 0x30
  204090:	e1a0c009 	mov	ip, r9
  204094:	e1a06007 	mov	r6, r7
  204098:	e59d701c 	ldr	r7, [sp, #28]
  20409c:	da00000d 	ble	2040d8 <_dtoa_r+0x1548>
  2040a0:	e59d1030 	ldr	r1, [sp, #48]	; 0x30
  2040a4:	e3a02001 	mov	r2, #1
  2040a8:	e1a00004 	mov	r0, r4
  2040ac:	e58d900c 	str	r9, [sp, #12]
  2040b0:	eb000491 	bl	2052fc <__lshift>
  2040b4:	e1a01006 	mov	r1, r6
  2040b8:	e58d0030 	str	r0, [sp, #48]	; 0x30
  2040bc:	eb0004d1 	bl	205408 <__mcmp>
  2040c0:	e3500000 	cmp	r0, #0
  2040c4:	e59dc00c 	ldr	ip, [sp, #12]
  2040c8:	da00005a 	ble	204238 <_dtoa_r+0x16a8>
  2040cc:	e3570039 	cmp	r7, #57	; 0x39
  2040d0:	0a000048 	beq	2041f8 <_dtoa_r+0x1668>
  2040d4:	e28a7031 	add	r7, sl, #49	; 0x31
  2040d8:	e59d3024 	ldr	r3, [sp, #36]	; 0x24
  2040dc:	e2831001 	add	r1, r3, #1
  2040e0:	e59d9020 	ldr	r9, [sp, #32]
  2040e4:	e1a05008 	mov	r5, r8
  2040e8:	e5c37000 	strb	r7, [r3]
  2040ec:	e1a0800c 	mov	r8, ip
  2040f0:	e58d1020 	str	r1, [sp, #32]
  2040f4:	eafffca1 	b	203380 <_dtoa_r+0x7f0>
  2040f8:	1a000001 	bne	204104 <_dtoa_r+0x1574>
  2040fc:	e3170001 	tst	r7, #1
  204100:	1afffe29 	bne	2039ac <_dtoa_r+0xe1c>
  204104:	e55b2001 	ldrb	r2, [fp, #-1]
  204108:	e3520030 	cmp	r2, #48	; 0x30
  20410c:	e1a0300b 	mov	r3, fp
  204110:	e24bb001 	sub	fp, fp, #1
  204114:	0afffffa 	beq	204104 <_dtoa_r+0x1574>
  204118:	e59d9020 	ldr	r9, [sp, #32]
  20411c:	e58d3020 	str	r3, [sp, #32]
  204120:	eafffc96 	b	203380 <_dtoa_r+0x7f0>
  204124:	e3a06000 	mov	r6, #0
  204128:	eafffdef 	b	2038ec <_dtoa_r+0xd5c>
  20412c:	e5981004 	ldr	r1, [r8, #4]
  204130:	e1a00004 	mov	r0, r4
  204134:	eb0002d5 	bl	204c90 <_Balloc>
  204138:	e5982010 	ldr	r2, [r8, #16]
  20413c:	e2822002 	add	r2, r2, #2
  204140:	e1a05000 	mov	r5, r0
  204144:	e1a02102 	lsl	r2, r2, #2
  204148:	e288100c 	add	r1, r8, #12
  20414c:	e280000c 	add	r0, r0, #12
  204150:	eb000290 	bl	204b98 <memcpy>
  204154:	e1a00004 	mov	r0, r4
  204158:	e1a01005 	mov	r1, r5
  20415c:	e3a02001 	mov	r2, #1
  204160:	eb000465 	bl	2052fc <__lshift>
  204164:	e1a0c000 	mov	ip, r0
  204168:	eafffef5 	b	203d44 <_dtoa_r+0x11b4>
  20416c:	e28d1010 	add	r1, sp, #16
  204170:	e8910003 	ldm	r1, {r0, r1}
  204174:	e1a02006 	mov	r2, r6
  204178:	e1a03007 	mov	r3, r7
  20417c:	eb0010f9 	bl	208568 <__aeabi_dcmpeq>
  204180:	e3500000 	cmp	r0, #0
  204184:	0affffb8 	beq	20406c <_dtoa_r+0x14dc>
  204188:	e3180001 	tst	r8, #1
  20418c:	e59d9020 	ldr	r9, [sp, #32]
  204190:	0affffb6 	beq	204070 <_dtoa_r+0x14e0>
  204194:	e59dc018 	ldr	ip, [sp, #24]
  204198:	e58dc060 	str	ip, [sp, #96]	; 0x60
  20419c:	e5558001 	ldrb	r8, [r5, #-1]
  2041a0:	eafffbcb 	b	2030d4 <_dtoa_r+0x544>
  2041a4:	e58d6030 	str	r6, [sp, #48]	; 0x30
  2041a8:	e1a06007 	mov	r6, r7
  2041ac:	e59d701c 	ldr	r7, [sp, #28]
  2041b0:	e3570039 	cmp	r7, #57	; 0x39
  2041b4:	e1a0c009 	mov	ip, r9
  2041b8:	0a00000e 	beq	2041f8 <_dtoa_r+0x1668>
  2041bc:	e59d3024 	ldr	r3, [sp, #36]	; 0x24
  2041c0:	e2877001 	add	r7, r7, #1
  2041c4:	e2831001 	add	r1, r3, #1
  2041c8:	e59d9020 	ldr	r9, [sp, #32]
  2041cc:	e1a05008 	mov	r5, r8
  2041d0:	e5c37000 	strb	r7, [r3]
  2041d4:	e58d1020 	str	r1, [sp, #32]
  2041d8:	e1a0800c 	mov	r8, ip
  2041dc:	eafffc67 	b	203380 <_dtoa_r+0x7f0>
  2041e0:	e58d6030 	str	r6, [sp, #48]	; 0x30
  2041e4:	e1a05008 	mov	r5, r8
  2041e8:	e1a06007 	mov	r6, r7
  2041ec:	e1a08009 	mov	r8, r9
  2041f0:	e59d701c 	ldr	r7, [sp, #28]
  2041f4:	eafffde3 	b	203988 <_dtoa_r+0xdf8>
  2041f8:	e59d2024 	ldr	r2, [sp, #36]	; 0x24
  2041fc:	e3a03039 	mov	r3, #57	; 0x39
  204200:	e1a05008 	mov	r5, r8
  204204:	e5c23000 	strb	r3, [r2]
  204208:	e1a0800c 	mov	r8, ip
  20420c:	e282b001 	add	fp, r2, #1
  204210:	eafffde9 	b	2039bc <_dtoa_r+0xe2c>
  204214:	e58d6030 	str	r6, [sp, #48]	; 0x30
  204218:	e1a06007 	mov	r6, r7
  20421c:	e59d701c 	ldr	r7, [sp, #28]
  204220:	e3570039 	cmp	r7, #57	; 0x39
  204224:	e1a0c009 	mov	ip, r9
  204228:	0afffff2 	beq	2041f8 <_dtoa_r+0x1668>
  20422c:	e35b0000 	cmp	fp, #0
  204230:	caffffa7 	bgt	2040d4 <_dtoa_r+0x1544>
  204234:	eaffffa7 	b	2040d8 <_dtoa_r+0x1548>
  204238:	1affffa6 	bne	2040d8 <_dtoa_r+0x1548>
  20423c:	e3170001 	tst	r7, #1
  204240:	0affffa4 	beq	2040d8 <_dtoa_r+0x1548>
  204244:	eaffffa0 	b	2040cc <_dtoa_r+0x153c>
  204248:	e59dc058 	ldr	ip, [sp, #88]	; 0x58
  20424c:	e59d9020 	ldr	r9, [sp, #32]
  204250:	e58dc020 	str	ip, [sp, #32]
  204254:	eafffc54 	b	2033ac <_dtoa_r+0x81c>
  204258:	e3a08002 	mov	r8, #2
  20425c:	eafffce4 	b	2035f4 <_dtoa_r+0xa64>
  204260:	e59dc060 	ldr	ip, [sp, #96]	; 0x60
  204264:	e58dc018 	str	ip, [sp, #24]
  204268:	e59dc058 	ldr	ip, [sp, #88]	; 0x58
  20426c:	e59d9020 	ldr	r9, [sp, #32]
  204270:	e58dc020 	str	ip, [sp, #32]
  204274:	eafffc4c 	b	2033ac <_dtoa_r+0x81c>
  204278:	1263303c 	rsbne	r3, r3, #60	; 0x3c
  20427c:	0afffc0b 	beq	2032b0 <_dtoa_r+0x720>
  204280:	eafffc03 	b	203294 <_dtoa_r+0x704>
  204284:	e1a00000 	nop			; (mov r0, r0)

00204288 <_setlocale_r>:
  204288:	e92d4010 	push	{r4, lr}
  20428c:	e2524000 	subs	r4, r2, #0
  204290:	0a000004 	beq	2042a8 <_setlocale_r+0x20>
  204294:	e1a00004 	mov	r0, r4
  204298:	e59f104c 	ldr	r1, [pc, #76]	; 2042ec <_setlocale_r+0x64>
  20429c:	eb0005f3 	bl	205a70 <strcmp>
  2042a0:	e3500000 	cmp	r0, #0
  2042a4:	1a000002 	bne	2042b4 <_setlocale_r+0x2c>
  2042a8:	e59f0040 	ldr	r0, [pc, #64]	; 2042f0 <_setlocale_r+0x68>
  2042ac:	e8bd4010 	pop	{r4, lr}
  2042b0:	e12fff1e 	bx	lr
  2042b4:	e1a00004 	mov	r0, r4
  2042b8:	e59f1030 	ldr	r1, [pc, #48]	; 2042f0 <_setlocale_r+0x68>
  2042bc:	eb0005eb 	bl	205a70 <strcmp>
  2042c0:	e3500000 	cmp	r0, #0
  2042c4:	0afffff7 	beq	2042a8 <_setlocale_r+0x20>
  2042c8:	e1a00004 	mov	r0, r4
  2042cc:	e59f1020 	ldr	r1, [pc, #32]	; 2042f4 <_setlocale_r+0x6c>
  2042d0:	eb0005e6 	bl	205a70 <strcmp>
  2042d4:	e59f3014 	ldr	r3, [pc, #20]	; 2042f0 <_setlocale_r+0x68>
  2042d8:	e3500000 	cmp	r0, #0
  2042dc:	01a00003 	moveq	r0, r3
  2042e0:	13a00000 	movne	r0, #0
  2042e4:	e8bd4010 	pop	{r4, lr}
  2042e8:	e12fff1e 	bx	lr
  2042ec:	002088b4 	.word	0x002088b4
  2042f0:	002088b0 	.word	0x002088b0
  2042f4:	0020887c 	.word	0x0020887c

002042f8 <__locale_charset>:
  2042f8:	e59f0000 	ldr	r0, [pc]	; 204300 <__locale_charset+0x8>
  2042fc:	e12fff1e 	bx	lr
  204300:	00208d60 	.word	0x00208d60

00204304 <__locale_mb_cur_max>:
  204304:	e59f3004 	ldr	r3, [pc, #4]	; 204310 <__locale_mb_cur_max+0xc>
  204308:	e5930020 	ldr	r0, [r3, #32]
  20430c:	e12fff1e 	bx	lr
  204310:	00208d60 	.word	0x00208d60

00204314 <__locale_msgcharset>:
  204314:	e59f0000 	ldr	r0, [pc]	; 20431c <__locale_msgcharset+0x8>
  204318:	e12fff1e 	bx	lr
  20431c:	00208d84 	.word	0x00208d84

00204320 <__locale_cjk_lang>:
  204320:	e3a00000 	mov	r0, #0
  204324:	e12fff1e 	bx	lr

00204328 <_localeconv_r>:
  204328:	e59f0000 	ldr	r0, [pc]	; 204330 <_localeconv_r+0x8>
  20432c:	e12fff1e 	bx	lr
  204330:	00208da4 	.word	0x00208da4

00204334 <setlocale>:
  204334:	e59f300c 	ldr	r3, [pc, #12]	; 204348 <setlocale+0x14>
  204338:	e1a02001 	mov	r2, r1
  20433c:	e1a01000 	mov	r1, r0
  204340:	e5930000 	ldr	r0, [r3]
  204344:	eaffffcf 	b	204288 <_setlocale_r>
  204348:	00208930 	.word	0x00208930

0020434c <localeconv>:
  20434c:	e59f0000 	ldr	r0, [pc]	; 204354 <localeconv+0x8>
  204350:	e12fff1e 	bx	lr
  204354:	00208da4 	.word	0x00208da4

00204358 <_malloc_r>:
  204358:	e92d4ff0 	push	{r4, r5, r6, r7, r8, r9, sl, fp, lr}
  20435c:	e281500b 	add	r5, r1, #11
  204360:	e3550016 	cmp	r5, #22
  204364:	83c55007 	bichi	r5, r5, #7
  204368:	81a03fa5 	lsrhi	r3, r5, #31
  20436c:	93a03000 	movls	r3, #0
  204370:	93a05010 	movls	r5, #16
  204374:	e1550001 	cmp	r5, r1
  204378:	21a01003 	movcs	r1, r3
  20437c:	33831001 	orrcc	r1, r3, #1
  204380:	e3510000 	cmp	r1, #0
  204384:	13a0300c 	movne	r3, #12
  204388:	e24dd00c 	sub	sp, sp, #12
  20438c:	e1a06000 	mov	r6, r0
  204390:	15803000 	strne	r3, [r0]
  204394:	13a04000 	movne	r4, #0
  204398:	1a000015 	bne	2043f4 <_malloc_r+0x9c>
  20439c:	eb000239 	bl	204c88 <__malloc_lock>
  2043a0:	e3550f7e 	cmp	r5, #504	; 0x1f8
  2043a4:	2a000016 	bcs	204404 <_malloc_r+0xac>
  2043a8:	e59f76c8 	ldr	r7, [pc, #1736]	; 204a78 <_malloc_r+0x720>
  2043ac:	e1a0e1a5 	lsr	lr, r5, #3
  2043b0:	e087318e 	add	r3, r7, lr, lsl #3
  2043b4:	e593400c 	ldr	r4, [r3, #12]
  2043b8:	e1540003 	cmp	r4, r3
  2043bc:	0a000145 	beq	2048d8 <_malloc_r+0x580>
  2043c0:	e5943004 	ldr	r3, [r4, #4]
  2043c4:	e3c33003 	bic	r3, r3, #3
  2043c8:	e0843003 	add	r3, r4, r3
  2043cc:	e593c004 	ldr	ip, [r3, #4]
  2043d0:	e2841008 	add	r1, r4, #8
  2043d4:	e8910006 	ldm	r1, {r1, r2}
  2043d8:	e38cc001 	orr	ip, ip, #1
  2043dc:	e581200c 	str	r2, [r1, #12]
  2043e0:	e1a00006 	mov	r0, r6
  2043e4:	e5821008 	str	r1, [r2, #8]
  2043e8:	e583c004 	str	ip, [r3, #4]
  2043ec:	eb000226 	bl	204c8c <__malloc_unlock>
  2043f0:	e2844008 	add	r4, r4, #8
  2043f4:	e1a00004 	mov	r0, r4
  2043f8:	e28dd00c 	add	sp, sp, #12
  2043fc:	e8bd4ff0 	pop	{r4, r5, r6, r7, r8, r9, sl, fp, lr}
  204400:	e12fff1e 	bx	lr
  204404:	e1b0e4a5 	lsrs	lr, r5, #9
  204408:	03a0107e 	moveq	r1, #126	; 0x7e
  20440c:	03a0e03f 	moveq	lr, #63	; 0x3f
  204410:	1a000061 	bne	20459c <_malloc_r+0x244>
  204414:	e59f765c 	ldr	r7, [pc, #1628]	; 204a78 <_malloc_r+0x720>
  204418:	e0871101 	add	r1, r7, r1, lsl #2
  20441c:	e591400c 	ldr	r4, [r1, #12]
  204420:	e1510004 	cmp	r1, r4
  204424:	1a000005 	bne	204440 <_malloc_r+0xe8>
  204428:	ea00000a 	b	204458 <_malloc_r+0x100>
  20442c:	e3530000 	cmp	r3, #0
  204430:	aa0000de 	bge	2047b0 <_malloc_r+0x458>
  204434:	e594400c 	ldr	r4, [r4, #12]
  204438:	e1510004 	cmp	r1, r4
  20443c:	0a000005 	beq	204458 <_malloc_r+0x100>
  204440:	e5942004 	ldr	r2, [r4, #4]
  204444:	e3c22003 	bic	r2, r2, #3
  204448:	e0653002 	rsb	r3, r5, r2
  20444c:	e353000f 	cmp	r3, #15
  204450:	dafffff5 	ble	20442c <_malloc_r+0xd4>
  204454:	e24ee001 	sub	lr, lr, #1
  204458:	e28ee001 	add	lr, lr, #1
  20445c:	e59f3614 	ldr	r3, [pc, #1556]	; 204a78 <_malloc_r+0x720>
  204460:	e5974010 	ldr	r4, [r7, #16]
  204464:	e2838008 	add	r8, r3, #8
  204468:	e1540008 	cmp	r4, r8
  20446c:	05931004 	ldreq	r1, [r3, #4]
  204470:	0a000016 	beq	2044d0 <_malloc_r+0x178>
  204474:	e5942004 	ldr	r2, [r4, #4]
  204478:	e3c22003 	bic	r2, r2, #3
  20447c:	e0651002 	rsb	r1, r5, r2
  204480:	e351000f 	cmp	r1, #15
  204484:	ca000101 	bgt	204890 <_malloc_r+0x538>
  204488:	e3510000 	cmp	r1, #0
  20448c:	e5838014 	str	r8, [r3, #20]
  204490:	e5838010 	str	r8, [r3, #16]
  204494:	aa000046 	bge	2045b4 <_malloc_r+0x25c>
  204498:	e3520c02 	cmp	r2, #512	; 0x200
  20449c:	2a0000dc 	bcs	204814 <_malloc_r+0x4bc>
  2044a0:	e5930004 	ldr	r0, [r3, #4]
  2044a4:	e1a021a2 	lsr	r2, r2, #3
  2044a8:	e1a01142 	asr	r1, r2, #2
  2044ac:	e3a0c001 	mov	ip, #1
  2044b0:	e180111c 	orr	r1, r0, ip, lsl r1
  2044b4:	e0832182 	add	r2, r3, r2, lsl #3
  2044b8:	e5920008 	ldr	r0, [r2, #8]
  2044bc:	e5831004 	str	r1, [r3, #4]
  2044c0:	e5840008 	str	r0, [r4, #8]
  2044c4:	e584200c 	str	r2, [r4, #12]
  2044c8:	e5824008 	str	r4, [r2, #8]
  2044cc:	e580400c 	str	r4, [r0, #12]
  2044d0:	e1a0314e 	asr	r3, lr, #2
  2044d4:	e3a00001 	mov	r0, #1
  2044d8:	e1a00310 	lsl	r0, r0, r3
  2044dc:	e1500001 	cmp	r0, r1
  2044e0:	8a00003e 	bhi	2045e0 <_malloc_r+0x288>
  2044e4:	e1110000 	tst	r1, r0
  2044e8:	1a000008 	bne	204510 <_malloc_r+0x1b8>
  2044ec:	e1a00080 	lsl	r0, r0, #1
  2044f0:	e3cee003 	bic	lr, lr, #3
  2044f4:	e1110000 	tst	r1, r0
  2044f8:	e28ee004 	add	lr, lr, #4
  2044fc:	1a000003 	bne	204510 <_malloc_r+0x1b8>
  204500:	e1a00080 	lsl	r0, r0, #1
  204504:	e1110000 	tst	r1, r0
  204508:	e28ee004 	add	lr, lr, #4
  20450c:	0afffffb 	beq	204500 <_malloc_r+0x1a8>
  204510:	e087418e 	add	r4, r7, lr, lsl #3
  204514:	e1a0c004 	mov	ip, r4
  204518:	e1a0900e 	mov	r9, lr
  20451c:	e59c300c 	ldr	r3, [ip, #12]
  204520:	e15c0003 	cmp	ip, r3
  204524:	1a000005 	bne	204540 <_malloc_r+0x1e8>
  204528:	ea0000e5 	b	2048c4 <_malloc_r+0x56c>
  20452c:	e3520000 	cmp	r2, #0
  204530:	aa0000ee 	bge	2048f0 <_malloc_r+0x598>
  204534:	e593300c 	ldr	r3, [r3, #12]
  204538:	e15c0003 	cmp	ip, r3
  20453c:	0a0000e0 	beq	2048c4 <_malloc_r+0x56c>
  204540:	e5931004 	ldr	r1, [r3, #4]
  204544:	e3c11003 	bic	r1, r1, #3
  204548:	e0652001 	rsb	r2, r5, r1
  20454c:	e352000f 	cmp	r2, #15
  204550:	dafffff5 	ble	20452c <_malloc_r+0x1d4>
  204554:	e1a04003 	mov	r4, r3
  204558:	e5b4c008 	ldr	ip, [r4, #8]!
  20455c:	e593100c 	ldr	r1, [r3, #12]
  204560:	e3859001 	orr	r9, r5, #1
  204564:	e382e001 	orr	lr, r2, #1
  204568:	e0835005 	add	r5, r3, r5
  20456c:	e5839004 	str	r9, [r3, #4]
  204570:	e1a00006 	mov	r0, r6
  204574:	e58c100c 	str	r1, [ip, #12]
  204578:	e581c008 	str	ip, [r1, #8]
  20457c:	e5875014 	str	r5, [r7, #20]
  204580:	e5875010 	str	r5, [r7, #16]
  204584:	e585800c 	str	r8, [r5, #12]
  204588:	e5858008 	str	r8, [r5, #8]
  20458c:	e585e004 	str	lr, [r5, #4]
  204590:	e7852002 	str	r2, [r5, r2]
  204594:	eb0001bc 	bl	204c8c <__malloc_unlock>
  204598:	eaffff95 	b	2043f4 <_malloc_r+0x9c>
  20459c:	e35e0004 	cmp	lr, #4
  2045a0:	8a000091 	bhi	2047ec <_malloc_r+0x494>
  2045a4:	e1a0e325 	lsr	lr, r5, #6
  2045a8:	e28ee038 	add	lr, lr, #56	; 0x38
  2045ac:	e1a0108e 	lsl	r1, lr, #1
  2045b0:	eaffff97 	b	204414 <_malloc_r+0xbc>
  2045b4:	e0842002 	add	r2, r4, r2
  2045b8:	e5923004 	ldr	r3, [r2, #4]
  2045bc:	e3833001 	orr	r3, r3, #1
  2045c0:	e1a00006 	mov	r0, r6
  2045c4:	e5823004 	str	r3, [r2, #4]
  2045c8:	eb0001af 	bl	204c8c <__malloc_unlock>
  2045cc:	e2844008 	add	r4, r4, #8
  2045d0:	e1a00004 	mov	r0, r4
  2045d4:	e28dd00c 	add	sp, sp, #12
  2045d8:	e8bd4ff0 	pop	{r4, r5, r6, r7, r8, r9, sl, fp, lr}
  2045dc:	e12fff1e 	bx	lr
  2045e0:	e5974008 	ldr	r4, [r7, #8]
  2045e4:	e5949004 	ldr	r9, [r4, #4]
  2045e8:	e3c99003 	bic	r9, r9, #3
  2045ec:	e1550009 	cmp	r5, r9
  2045f0:	8a000002 	bhi	204600 <_malloc_r+0x2a8>
  2045f4:	e0653009 	rsb	r3, r5, r9
  2045f8:	e353000f 	cmp	r3, #15
  2045fc:	ca00005e 	bgt	20477c <_malloc_r+0x424>
  204600:	e59fa474 	ldr	sl, [pc, #1140]	; 204a7c <_malloc_r+0x724>
  204604:	e5973408 	ldr	r3, [r7, #1032]	; 0x408
  204608:	e59ab000 	ldr	fp, [sl]
  20460c:	e3730001 	cmn	r3, #1
  204610:	e085b00b 	add	fp, r5, fp
  204614:	128bba01 	addne	fp, fp, #4096	; 0x1000
  204618:	128bb00f 	addne	fp, fp, #15
  20461c:	13cbbeff 	bicne	fp, fp, #4080	; 0xff0
  204620:	028bb010 	addeq	fp, fp, #16
  204624:	13cbb00f 	bicne	fp, fp, #15
  204628:	e0842009 	add	r2, r4, r9
  20462c:	e1a00006 	mov	r0, r6
  204630:	e1a0100b 	mov	r1, fp
  204634:	e58d2004 	str	r2, [sp, #4]
  204638:	eb0004fb 	bl	205a2c <_sbrk_r>
  20463c:	e3700001 	cmn	r0, #1
  204640:	e1a08000 	mov	r8, r0
  204644:	e59d2004 	ldr	r2, [sp, #4]
  204648:	0a0000ba 	beq	204938 <_malloc_r+0x5e0>
  20464c:	e1520000 	cmp	r2, r0
  204650:	8a0000b6 	bhi	204930 <_malloc_r+0x5d8>
  204654:	e59a3004 	ldr	r3, [sl, #4]
  204658:	e1520008 	cmp	r2, r8
  20465c:	e08b3003 	add	r3, fp, r3
  204660:	e58a3004 	str	r3, [sl, #4]
  204664:	0a0000e8 	beq	204a0c <_malloc_r+0x6b4>
  204668:	e5971408 	ldr	r1, [r7, #1032]	; 0x408
  20466c:	e3710001 	cmn	r1, #1
  204670:	10622008 	rsbne	r2, r2, r8
  204674:	e59f13fc 	ldr	r1, [pc, #1020]	; 204a78 <_malloc_r+0x720>
  204678:	10833002 	addne	r3, r3, r2
  20467c:	05818408 	streq	r8, [r1, #1032]	; 0x408
  204680:	158a3004 	strne	r3, [sl, #4]
  204684:	e2183007 	ands	r3, r8, #7
  204688:	12632008 	rsbne	r2, r3, #8
  20468c:	10888002 	addne	r8, r8, r2
  204690:	12633a01 	rsbne	r3, r3, #4096	; 0x1000
  204694:	12832008 	addne	r2, r3, #8
  204698:	e088300b 	add	r3, r8, fp
  20469c:	03a02a01 	moveq	r2, #4096	; 0x1000
  2046a0:	e1a03a03 	lsl	r3, r3, #20
  2046a4:	e042ba23 	sub	fp, r2, r3, lsr #20
  2046a8:	e1a0100b 	mov	r1, fp
  2046ac:	e1a00006 	mov	r0, r6
  2046b0:	eb0004dd 	bl	205a2c <_sbrk_r>
  2046b4:	e3700001 	cmn	r0, #1
  2046b8:	10682000 	rsbne	r2, r8, r0
  2046bc:	e59a3004 	ldr	r3, [sl, #4]
  2046c0:	108b2002 	addne	r2, fp, r2
  2046c4:	03a0b000 	moveq	fp, #0
  2046c8:	13822001 	orrne	r2, r2, #1
  2046cc:	03a02001 	moveq	r2, #1
  2046d0:	e08b3003 	add	r3, fp, r3
  2046d4:	e1540007 	cmp	r4, r7
  2046d8:	e5878008 	str	r8, [r7, #8]
  2046dc:	e58a3004 	str	r3, [sl, #4]
  2046e0:	e5882004 	str	r2, [r8, #4]
  2046e4:	e59fb390 	ldr	fp, [pc, #912]	; 204a7c <_malloc_r+0x724>
  2046e8:	0a00000d 	beq	204724 <_malloc_r+0x3cc>
  2046ec:	e359000f 	cmp	r9, #15
  2046f0:	9a0000b1 	bls	2049bc <_malloc_r+0x664>
  2046f4:	e5940004 	ldr	r0, [r4, #4]
  2046f8:	e249200c 	sub	r2, r9, #12
  2046fc:	e3c22007 	bic	r2, r2, #7
  204700:	e2000001 	and	r0, r0, #1
  204704:	e1820000 	orr	r0, r2, r0
  204708:	e3a01005 	mov	r1, #5
  20470c:	e352000f 	cmp	r2, #15
  204710:	e0842002 	add	r2, r4, r2
  204714:	e5840004 	str	r0, [r4, #4]
  204718:	e5821004 	str	r1, [r2, #4]
  20471c:	e5821008 	str	r1, [r2, #8]
  204720:	8a0000c0 	bhi	204a28 <_malloc_r+0x6d0>
  204724:	e59a202c 	ldr	r2, [sl, #44]	; 0x2c
  204728:	e1530002 	cmp	r3, r2
  20472c:	e59f2348 	ldr	r2, [pc, #840]	; 204a7c <_malloc_r+0x724>
  204730:	8582302c 	strhi	r3, [r2, #44]	; 0x2c
  204734:	e59a2030 	ldr	r2, [sl, #48]	; 0x30
  204738:	e5974008 	ldr	r4, [r7, #8]
  20473c:	e1530002 	cmp	r3, r2
  204740:	95943004 	ldrls	r3, [r4, #4]
  204744:	e59f2330 	ldr	r2, [pc, #816]	; 204a7c <_malloc_r+0x724>
  204748:	85941004 	ldrhi	r1, [r4, #4]
  20474c:	85823030 	strhi	r3, [r2, #48]	; 0x30
  204750:	93c33003 	bicls	r3, r3, #3
  204754:	83c13003 	bichi	r3, r1, #3
  204758:	e1550003 	cmp	r5, r3
  20475c:	e0653003 	rsb	r3, r5, r3
  204760:	8a000001 	bhi	20476c <_malloc_r+0x414>
  204764:	e353000f 	cmp	r3, #15
  204768:	ca000003 	bgt	20477c <_malloc_r+0x424>
  20476c:	e1a00006 	mov	r0, r6
  204770:	eb000145 	bl	204c8c <__malloc_unlock>
  204774:	e3a04000 	mov	r4, #0
  204778:	eaffff1d 	b	2043f4 <_malloc_r+0x9c>
  20477c:	e3852001 	orr	r2, r5, #1
  204780:	e3833001 	orr	r3, r3, #1
  204784:	e0845005 	add	r5, r4, r5
  204788:	e5842004 	str	r2, [r4, #4]
  20478c:	e1a00006 	mov	r0, r6
  204790:	e5875008 	str	r5, [r7, #8]
  204794:	e5853004 	str	r3, [r5, #4]
  204798:	eb00013b 	bl	204c8c <__malloc_unlock>
  20479c:	e2844008 	add	r4, r4, #8
  2047a0:	e1a00004 	mov	r0, r4
  2047a4:	e28dd00c 	add	sp, sp, #12
  2047a8:	e8bd4ff0 	pop	{r4, r5, r6, r7, r8, r9, sl, fp, lr}
  2047ac:	e12fff1e 	bx	lr
  2047b0:	e0842002 	add	r2, r4, r2
  2047b4:	e592c004 	ldr	ip, [r2, #4]
  2047b8:	e2841008 	add	r1, r4, #8
  2047bc:	e891000a 	ldm	r1, {r1, r3}
  2047c0:	e38cc001 	orr	ip, ip, #1
  2047c4:	e581300c 	str	r3, [r1, #12]
  2047c8:	e1a00006 	mov	r0, r6
  2047cc:	e5831008 	str	r1, [r3, #8]
  2047d0:	e582c004 	str	ip, [r2, #4]
  2047d4:	eb00012c 	bl	204c8c <__malloc_unlock>
  2047d8:	e2844008 	add	r4, r4, #8
  2047dc:	e1a00004 	mov	r0, r4
  2047e0:	e28dd00c 	add	sp, sp, #12
  2047e4:	e8bd4ff0 	pop	{r4, r5, r6, r7, r8, r9, sl, fp, lr}
  2047e8:	e12fff1e 	bx	lr
  2047ec:	e35e0014 	cmp	lr, #20
  2047f0:	928ee05b 	addls	lr, lr, #91	; 0x5b
  2047f4:	91a0108e 	lslls	r1, lr, #1
  2047f8:	9affff05 	bls	204414 <_malloc_r+0xbc>
  2047fc:	e35e0054 	cmp	lr, #84	; 0x54
  204800:	8a000067 	bhi	2049a4 <_malloc_r+0x64c>
  204804:	e1a0e625 	lsr	lr, r5, #12
  204808:	e28ee06e 	add	lr, lr, #110	; 0x6e
  20480c:	e1a0108e 	lsl	r1, lr, #1
  204810:	eafffeff 	b	204414 <_malloc_r+0xbc>
  204814:	e1a034a2 	lsr	r3, r2, #9
  204818:	e3530004 	cmp	r3, #4
  20481c:	9a00003f 	bls	204920 <_malloc_r+0x5c8>
  204820:	e3530014 	cmp	r3, #20
  204824:	9283105b 	addls	r1, r3, #91	; 0x5b
  204828:	91a00081 	lslls	r0, r1, #1
  20482c:	9a000004 	bls	204844 <_malloc_r+0x4ec>
  204830:	e3530054 	cmp	r3, #84	; 0x54
  204834:	8a000080 	bhi	204a3c <_malloc_r+0x6e4>
  204838:	e1a01622 	lsr	r1, r2, #12
  20483c:	e281106e 	add	r1, r1, #110	; 0x6e
  204840:	e1a00081 	lsl	r0, r1, #1
  204844:	e0870100 	add	r0, r7, r0, lsl #2
  204848:	e5903008 	ldr	r3, [r0, #8]
  20484c:	e1530000 	cmp	r3, r0
  204850:	e59fc220 	ldr	ip, [pc, #544]	; 204a78 <_malloc_r+0x720>
  204854:	0a00005d 	beq	2049d0 <_malloc_r+0x678>
  204858:	e5931004 	ldr	r1, [r3, #4]
  20485c:	e3c11003 	bic	r1, r1, #3
  204860:	e1520001 	cmp	r2, r1
  204864:	2a000002 	bcs	204874 <_malloc_r+0x51c>
  204868:	e5933008 	ldr	r3, [r3, #8]
  20486c:	e1500003 	cmp	r0, r3
  204870:	1afffff8 	bne	204858 <_malloc_r+0x500>
  204874:	e593200c 	ldr	r2, [r3, #12]
  204878:	e5971004 	ldr	r1, [r7, #4]
  20487c:	e584200c 	str	r2, [r4, #12]
  204880:	e5843008 	str	r3, [r4, #8]
  204884:	e5824008 	str	r4, [r2, #8]
  204888:	e583400c 	str	r4, [r3, #12]
  20488c:	eaffff0f 	b	2044d0 <_malloc_r+0x178>
  204890:	e385c001 	orr	ip, r5, #1
  204894:	e3812001 	orr	r2, r1, #1
  204898:	e0845005 	add	r5, r4, r5
  20489c:	e584c004 	str	ip, [r4, #4]
  2048a0:	e1a00006 	mov	r0, r6
  2048a4:	e5835014 	str	r5, [r3, #20]
  2048a8:	e5835010 	str	r5, [r3, #16]
  2048ac:	e585800c 	str	r8, [r5, #12]
  2048b0:	e9850104 	stmib	r5, {r2, r8}
  2048b4:	e7851001 	str	r1, [r5, r1]
  2048b8:	e2844008 	add	r4, r4, #8
  2048bc:	eb0000f2 	bl	204c8c <__malloc_unlock>
  2048c0:	eafffecb 	b	2043f4 <_malloc_r+0x9c>
  2048c4:	e2899001 	add	r9, r9, #1
  2048c8:	e3190003 	tst	r9, #3
  2048cc:	e28cc008 	add	ip, ip, #8
  2048d0:	1affff11 	bne	20451c <_malloc_r+0x1c4>
  2048d4:	ea00001f 	b	204958 <_malloc_r+0x600>
  2048d8:	e2843008 	add	r3, r4, #8
  2048dc:	e5944014 	ldr	r4, [r4, #20]
  2048e0:	e1530004 	cmp	r3, r4
  2048e4:	028ee002 	addeq	lr, lr, #2
  2048e8:	0afffedb 	beq	20445c <_malloc_r+0x104>
  2048ec:	eafffeb3 	b	2043c0 <_malloc_r+0x68>
  2048f0:	e0831001 	add	r1, r3, r1
  2048f4:	e591c004 	ldr	ip, [r1, #4]
  2048f8:	e1a04003 	mov	r4, r3
  2048fc:	e5b42008 	ldr	r2, [r4, #8]!
  204900:	e593300c 	ldr	r3, [r3, #12]
  204904:	e38cc001 	orr	ip, ip, #1
  204908:	e581c004 	str	ip, [r1, #4]
  20490c:	e1a00006 	mov	r0, r6
  204910:	e582300c 	str	r3, [r2, #12]
  204914:	e5832008 	str	r2, [r3, #8]
  204918:	eb0000db 	bl	204c8c <__malloc_unlock>
  20491c:	eafffeb4 	b	2043f4 <_malloc_r+0x9c>
  204920:	e1a01322 	lsr	r1, r2, #6
  204924:	e2811038 	add	r1, r1, #56	; 0x38
  204928:	e1a00081 	lsl	r0, r1, #1
  20492c:	eaffffc4 	b	204844 <_malloc_r+0x4ec>
  204930:	e1540007 	cmp	r4, r7
  204934:	0affff46 	beq	204654 <_malloc_r+0x2fc>
  204938:	e5974008 	ldr	r4, [r7, #8]
  20493c:	e5943004 	ldr	r3, [r4, #4]
  204940:	e3c33003 	bic	r3, r3, #3
  204944:	eaffff83 	b	204758 <_malloc_r+0x400>
  204948:	e5944000 	ldr	r4, [r4]
  20494c:	e1540003 	cmp	r4, r3
  204950:	e24ee001 	sub	lr, lr, #1
  204954:	1a000045 	bne	204a70 <_malloc_r+0x718>
  204958:	e31e0003 	tst	lr, #3
  20495c:	e2443008 	sub	r3, r4, #8
  204960:	1afffff8 	bne	204948 <_malloc_r+0x5f0>
  204964:	e5973004 	ldr	r3, [r7, #4]
  204968:	e1c33000 	bic	r3, r3, r0
  20496c:	e5873004 	str	r3, [r7, #4]
  204970:	e1a00080 	lsl	r0, r0, #1
  204974:	e1500003 	cmp	r0, r3
  204978:	8affff18 	bhi	2045e0 <_malloc_r+0x288>
  20497c:	e3500000 	cmp	r0, #0
  204980:	0affff16 	beq	2045e0 <_malloc_r+0x288>
  204984:	e1130000 	tst	r3, r0
  204988:	e1a0e009 	mov	lr, r9
  20498c:	1afffedf 	bne	204510 <_malloc_r+0x1b8>
  204990:	e1a00080 	lsl	r0, r0, #1
  204994:	e1130000 	tst	r3, r0
  204998:	e28ee004 	add	lr, lr, #4
  20499c:	0afffffb 	beq	204990 <_malloc_r+0x638>
  2049a0:	eafffeda 	b	204510 <_malloc_r+0x1b8>
  2049a4:	e35e0f55 	cmp	lr, #340	; 0x154
  2049a8:	8a00000f 	bhi	2049ec <_malloc_r+0x694>
  2049ac:	e1a0e7a5 	lsr	lr, r5, #15
  2049b0:	e28ee077 	add	lr, lr, #119	; 0x77
  2049b4:	e1a0108e 	lsl	r1, lr, #1
  2049b8:	eafffe95 	b	204414 <_malloc_r+0xbc>
  2049bc:	e3a03001 	mov	r3, #1
  2049c0:	e5883004 	str	r3, [r8, #4]
  2049c4:	e1a04008 	mov	r4, r8
  2049c8:	e3a03000 	mov	r3, #0
  2049cc:	eaffff61 	b	204758 <_malloc_r+0x400>
  2049d0:	e59c2004 	ldr	r2, [ip, #4]
  2049d4:	e1a01141 	asr	r1, r1, #2
  2049d8:	e3a00001 	mov	r0, #1
  2049dc:	e1821110 	orr	r1, r2, r0, lsl r1
  2049e0:	e1a02003 	mov	r2, r3
  2049e4:	e58c1004 	str	r1, [ip, #4]
  2049e8:	eaffffa3 	b	20487c <_malloc_r+0x524>
  2049ec:	e59f308c 	ldr	r3, [pc, #140]	; 204a80 <_malloc_r+0x728>
  2049f0:	e15e0003 	cmp	lr, r3
  2049f4:	91a0e925 	lsrls	lr, r5, #18
  2049f8:	928ee07c 	addls	lr, lr, #124	; 0x7c
  2049fc:	91a0108e 	lslls	r1, lr, #1
  204a00:	83a010fc 	movhi	r1, #252	; 0xfc
  204a04:	83a0e07e 	movhi	lr, #126	; 0x7e
  204a08:	eafffe81 	b	204414 <_malloc_r+0xbc>
  204a0c:	e1b01a02 	lsls	r1, r2, #20
  204a10:	1affff14 	bne	204668 <_malloc_r+0x310>
  204a14:	e08b1009 	add	r1, fp, r9
  204a18:	e5972008 	ldr	r2, [r7, #8]
  204a1c:	e3811001 	orr	r1, r1, #1
  204a20:	e5821004 	str	r1, [r2, #4]
  204a24:	eaffff3e 	b	204724 <_malloc_r+0x3cc>
  204a28:	e2841008 	add	r1, r4, #8
  204a2c:	e1a00006 	mov	r0, r6
  204a30:	eb000978 	bl	207018 <_free_r>
  204a34:	e59b3004 	ldr	r3, [fp, #4]
  204a38:	eaffff39 	b	204724 <_malloc_r+0x3cc>
  204a3c:	e3530f55 	cmp	r3, #340	; 0x154
  204a40:	91a017a2 	lsrls	r1, r2, #15
  204a44:	92811077 	addls	r1, r1, #119	; 0x77
  204a48:	91a00081 	lslls	r0, r1, #1
  204a4c:	9affff7c 	bls	204844 <_malloc_r+0x4ec>
  204a50:	e59f1028 	ldr	r1, [pc, #40]	; 204a80 <_malloc_r+0x728>
  204a54:	e1530001 	cmp	r3, r1
  204a58:	91a01922 	lsrls	r1, r2, #18
  204a5c:	9281107c 	addls	r1, r1, #124	; 0x7c
  204a60:	91a00081 	lslls	r0, r1, #1
  204a64:	83a000fc 	movhi	r0, #252	; 0xfc
  204a68:	83a0107e 	movhi	r1, #126	; 0x7e
  204a6c:	eaffff74 	b	204844 <_malloc_r+0x4ec>
  204a70:	e5973004 	ldr	r3, [r7, #4]
  204a74:	eaffffbd 	b	204970 <_malloc_r+0x618>
  204a78:	00208ddc 	.word	0x00208ddc
  204a7c:	00209200 	.word	0x00209200
  204a80:	00000554 	.word	0x00000554

00204a84 <memchr>:
  204a84:	e3100003 	tst	r0, #3
  204a88:	e92d0070 	push	{r4, r5, r6}
  204a8c:	e20110ff 	and	r1, r1, #255	; 0xff
  204a90:	0a00003a 	beq	204b80 <memchr+0xfc>
  204a94:	e3520000 	cmp	r2, #0
  204a98:	e242c001 	sub	ip, r2, #1
  204a9c:	0a000021 	beq	204b28 <memchr+0xa4>
  204aa0:	e5d03000 	ldrb	r3, [r0]
  204aa4:	e1530001 	cmp	r3, r1
  204aa8:	0a00001f 	beq	204b2c <memchr+0xa8>
  204aac:	e2803001 	add	r3, r0, #1
  204ab0:	ea000006 	b	204ad0 <memchr+0x4c>
  204ab4:	e35c0000 	cmp	ip, #0
  204ab8:	0a00001a 	beq	204b28 <memchr+0xa4>
  204abc:	e5d02000 	ldrb	r2, [r0]
  204ac0:	e1520001 	cmp	r2, r1
  204ac4:	e2833001 	add	r3, r3, #1
  204ac8:	e24cc001 	sub	ip, ip, #1
  204acc:	0a000016 	beq	204b2c <memchr+0xa8>
  204ad0:	e3130003 	tst	r3, #3
  204ad4:	e1a00003 	mov	r0, r3
  204ad8:	1afffff5 	bne	204ab4 <memchr+0x30>
  204adc:	e35c0003 	cmp	ip, #3
  204ae0:	8a000013 	bhi	204b34 <memchr+0xb0>
  204ae4:	e35c0000 	cmp	ip, #0
  204ae8:	e24c4001 	sub	r4, ip, #1
  204aec:	0a000025 	beq	204b88 <memchr+0x104>
  204af0:	e5d03000 	ldrb	r3, [r0]
  204af4:	e1530001 	cmp	r3, r1
  204af8:	0a00000b 	beq	204b2c <memchr+0xa8>
  204afc:	e2802001 	add	r2, r0, #1
  204b00:	e3a03000 	mov	r3, #0
  204b04:	ea000004 	b	204b1c <memchr+0x98>
  204b08:	e5d0c000 	ldrb	ip, [r0]
  204b0c:	e15c0001 	cmp	ip, r1
  204b10:	e2822001 	add	r2, r2, #1
  204b14:	e2833001 	add	r3, r3, #1
  204b18:	0a000003 	beq	204b2c <memchr+0xa8>
  204b1c:	e1530004 	cmp	r3, r4
  204b20:	e1a00002 	mov	r0, r2
  204b24:	1afffff7 	bne	204b08 <memchr+0x84>
  204b28:	e3a00000 	mov	r0, #0
  204b2c:	e8bd0070 	pop	{r4, r5, r6}
  204b30:	e12fff1e 	bx	lr
  204b34:	e1816401 	orr	r6, r1, r1, lsl #8
  204b38:	e1a03000 	mov	r3, r0
  204b3c:	e1866806 	orr	r6, r6, r6, lsl #16
  204b40:	e5935000 	ldr	r5, [r3]
  204b44:	e59f4044 	ldr	r4, [pc, #68]	; 204b90 <memchr+0x10c>
  204b48:	e0265005 	eor	r5, r6, r5
  204b4c:	e0854004 	add	r4, r5, r4
  204b50:	e59f203c 	ldr	r2, [pc, #60]	; 204b94 <memchr+0x110>
  204b54:	e1c44005 	bic	r4, r4, r5
  204b58:	e0042002 	and	r2, r4, r2
  204b5c:	e3520000 	cmp	r2, #0
  204b60:	e1a00003 	mov	r0, r3
  204b64:	e2833004 	add	r3, r3, #4
  204b68:	1affffdd 	bne	204ae4 <memchr+0x60>
  204b6c:	e24cc004 	sub	ip, ip, #4
  204b70:	e35c0003 	cmp	ip, #3
  204b74:	e1a00003 	mov	r0, r3
  204b78:	8afffff0 	bhi	204b40 <memchr+0xbc>
  204b7c:	eaffffd8 	b	204ae4 <memchr+0x60>
  204b80:	e1a0c002 	mov	ip, r2
  204b84:	eaffffd4 	b	204adc <memchr+0x58>
  204b88:	e1a0000c 	mov	r0, ip
  204b8c:	eaffffe6 	b	204b2c <memchr+0xa8>
  204b90:	fefefeff 	.word	0xfefefeff
  204b94:	80808080 	.word	0x80808080

00204b98 <memcpy>:
  204b98:	e352000f 	cmp	r2, #15
  204b9c:	e92d00f0 	push	{r4, r5, r6, r7}
  204ba0:	9a00002a 	bls	204c50 <memcpy+0xb8>
  204ba4:	e1803001 	orr	r3, r0, r1
  204ba8:	e3130003 	tst	r3, #3
  204bac:	1a000031 	bne	204c78 <memcpy+0xe0>
  204bb0:	e2426010 	sub	r6, r2, #16
  204bb4:	e1a06226 	lsr	r6, r6, #4
  204bb8:	e0805206 	add	r5, r0, r6, lsl #4
  204bbc:	e2855010 	add	r5, r5, #16
  204bc0:	e1a0c001 	mov	ip, r1
  204bc4:	e1a03000 	mov	r3, r0
  204bc8:	e59c4000 	ldr	r4, [ip]
  204bcc:	e5834000 	str	r4, [r3]
  204bd0:	e59c4004 	ldr	r4, [ip, #4]
  204bd4:	e5834004 	str	r4, [r3, #4]
  204bd8:	e59c4008 	ldr	r4, [ip, #8]
  204bdc:	e5834008 	str	r4, [r3, #8]
  204be0:	e59c400c 	ldr	r4, [ip, #12]
  204be4:	e2833010 	add	r3, r3, #16
  204be8:	e5034004 	str	r4, [r3, #-4]
  204bec:	e1530005 	cmp	r3, r5
  204bf0:	e28cc010 	add	ip, ip, #16
  204bf4:	1afffff3 	bne	204bc8 <memcpy+0x30>
  204bf8:	e2863001 	add	r3, r6, #1
  204bfc:	e202700f 	and	r7, r2, #15
  204c00:	e1a03203 	lsl	r3, r3, #4
  204c04:	e3570003 	cmp	r7, #3
  204c08:	e0811003 	add	r1, r1, r3
  204c0c:	e0803003 	add	r3, r0, r3
  204c10:	9a00001a 	bls	204c80 <memcpy+0xe8>
  204c14:	e1a05001 	mov	r5, r1
  204c18:	e1a04003 	mov	r4, r3
  204c1c:	e1a0c007 	mov	ip, r7
  204c20:	e24cc004 	sub	ip, ip, #4
  204c24:	e4956004 	ldr	r6, [r5], #4
  204c28:	e35c0003 	cmp	ip, #3
  204c2c:	e4846004 	str	r6, [r4], #4
  204c30:	8afffffa 	bhi	204c20 <memcpy+0x88>
  204c34:	e247c004 	sub	ip, r7, #4
  204c38:	e3ccc003 	bic	ip, ip, #3
  204c3c:	e28cc004 	add	ip, ip, #4
  204c40:	e083300c 	add	r3, r3, ip
  204c44:	e081100c 	add	r1, r1, ip
  204c48:	e2022003 	and	r2, r2, #3
  204c4c:	ea000000 	b	204c54 <memcpy+0xbc>
  204c50:	e1a03000 	mov	r3, r0
  204c54:	e3520000 	cmp	r2, #0
  204c58:	0a000004 	beq	204c70 <memcpy+0xd8>
  204c5c:	e0812002 	add	r2, r1, r2
  204c60:	e4d1c001 	ldrb	ip, [r1], #1
  204c64:	e1510002 	cmp	r1, r2
  204c68:	e4c3c001 	strb	ip, [r3], #1
  204c6c:	1afffffb 	bne	204c60 <memcpy+0xc8>
  204c70:	e8bd00f0 	pop	{r4, r5, r6, r7}
  204c74:	e12fff1e 	bx	lr
  204c78:	e1a03000 	mov	r3, r0
  204c7c:	eafffff6 	b	204c5c <memcpy+0xc4>
  204c80:	e1a02007 	mov	r2, r7
  204c84:	eafffff2 	b	204c54 <memcpy+0xbc>

00204c88 <__malloc_lock>:
  204c88:	e12fff1e 	bx	lr

00204c8c <__malloc_unlock>:
  204c8c:	e12fff1e 	bx	lr

00204c90 <_Balloc>:
  204c90:	e590204c 	ldr	r2, [r0, #76]	; 0x4c
  204c94:	e3520000 	cmp	r2, #0
  204c98:	e92d4070 	push	{r4, r5, r6, lr}
  204c9c:	e1a05000 	mov	r5, r0
  204ca0:	e1a04001 	mov	r4, r1
  204ca4:	0a000009 	beq	204cd0 <_Balloc+0x40>
  204ca8:	e7920104 	ldr	r0, [r2, r4, lsl #2]
  204cac:	e3500000 	cmp	r0, #0
  204cb0:	0a00000f 	beq	204cf4 <_Balloc+0x64>
  204cb4:	e5901000 	ldr	r1, [r0]
  204cb8:	e7821104 	str	r1, [r2, r4, lsl #2]
  204cbc:	e3a02000 	mov	r2, #0
  204cc0:	e5802010 	str	r2, [r0, #16]
  204cc4:	e580200c 	str	r2, [r0, #12]
  204cc8:	e8bd4070 	pop	{r4, r5, r6, lr}
  204ccc:	e12fff1e 	bx	lr
  204cd0:	e3a02021 	mov	r2, #33	; 0x21
  204cd4:	e3a01004 	mov	r1, #4
  204cd8:	eb000863 	bl	206e6c <_calloc_r>
  204cdc:	e3500000 	cmp	r0, #0
  204ce0:	e585004c 	str	r0, [r5, #76]	; 0x4c
  204ce4:	11a02000 	movne	r2, r0
  204ce8:	1affffee 	bne	204ca8 <_Balloc+0x18>
  204cec:	e3a00000 	mov	r0, #0
  204cf0:	eafffff4 	b	204cc8 <_Balloc+0x38>
  204cf4:	e3a01001 	mov	r1, #1
  204cf8:	e1a06411 	lsl	r6, r1, r4
  204cfc:	e2862005 	add	r2, r6, #5
  204d00:	e1a00005 	mov	r0, r5
  204d04:	e1a02102 	lsl	r2, r2, #2
  204d08:	eb000857 	bl	206e6c <_calloc_r>
  204d0c:	e3500000 	cmp	r0, #0
  204d10:	0afffff5 	beq	204cec <_Balloc+0x5c>
  204d14:	e9800050 	stmib	r0, {r4, r6}
  204d18:	eaffffe7 	b	204cbc <_Balloc+0x2c>

00204d1c <_Bfree>:
  204d1c:	e3510000 	cmp	r1, #0
  204d20:	1590304c 	ldrne	r3, [r0, #76]	; 0x4c
  204d24:	15912004 	ldrne	r2, [r1, #4]
  204d28:	17930102 	ldrne	r0, [r3, r2, lsl #2]
  204d2c:	15810000 	strne	r0, [r1]
  204d30:	17831102 	strne	r1, [r3, r2, lsl #2]
  204d34:	e12fff1e 	bx	lr

00204d38 <__multadd>:
  204d38:	e92d43f0 	push	{r4, r5, r6, r7, r8, r9, lr}
  204d3c:	e5917010 	ldr	r7, [r1, #16]
  204d40:	e24dd00c 	sub	sp, sp, #12
  204d44:	e1a08001 	mov	r8, r1
  204d48:	e1a09000 	mov	r9, r0
  204d4c:	e2814014 	add	r4, r1, #20
  204d50:	e3a0c000 	mov	ip, #0
  204d54:	e5946000 	ldr	r6, [r4]
  204d58:	e1a05806 	lsl	r5, r6, #16
  204d5c:	e1a05825 	lsr	r5, r5, #16
  204d60:	e0253592 	mla	r5, r2, r5, r3
  204d64:	e1a03826 	lsr	r3, r6, #16
  204d68:	e0030392 	mul	r3, r2, r3
  204d6c:	e1a01805 	lsl	r1, r5, #16
  204d70:	e0833825 	add	r3, r3, r5, lsr #16
  204d74:	e28cc001 	add	ip, ip, #1
  204d78:	e1a01821 	lsr	r1, r1, #16
  204d7c:	e0811803 	add	r1, r1, r3, lsl #16
  204d80:	e157000c 	cmp	r7, ip
  204d84:	e4841004 	str	r1, [r4], #4
  204d88:	e1a03823 	lsr	r3, r3, #16
  204d8c:	cafffff0 	bgt	204d54 <__multadd+0x1c>
  204d90:	e3530000 	cmp	r3, #0
  204d94:	0a000006 	beq	204db4 <__multadd+0x7c>
  204d98:	e5982008 	ldr	r2, [r8, #8]
  204d9c:	e1570002 	cmp	r7, r2
  204da0:	aa000007 	bge	204dc4 <__multadd+0x8c>
  204da4:	e0882107 	add	r2, r8, r7, lsl #2
  204da8:	e2877001 	add	r7, r7, #1
  204dac:	e5823014 	str	r3, [r2, #20]
  204db0:	e5887010 	str	r7, [r8, #16]
  204db4:	e1a00008 	mov	r0, r8
  204db8:	e28dd00c 	add	sp, sp, #12
  204dbc:	e8bd43f0 	pop	{r4, r5, r6, r7, r8, r9, lr}
  204dc0:	e12fff1e 	bx	lr
  204dc4:	e5981004 	ldr	r1, [r8, #4]
  204dc8:	e1a00009 	mov	r0, r9
  204dcc:	e2811001 	add	r1, r1, #1
  204dd0:	e58d3004 	str	r3, [sp, #4]
  204dd4:	ebffffad 	bl	204c90 <_Balloc>
  204dd8:	e5982010 	ldr	r2, [r8, #16]
  204ddc:	e2822002 	add	r2, r2, #2
  204de0:	e288100c 	add	r1, r8, #12
  204de4:	e1a04000 	mov	r4, r0
  204de8:	e1a02102 	lsl	r2, r2, #2
  204dec:	e280000c 	add	r0, r0, #12
  204df0:	ebffff68 	bl	204b98 <memcpy>
  204df4:	e599204c 	ldr	r2, [r9, #76]	; 0x4c
  204df8:	e5981004 	ldr	r1, [r8, #4]
  204dfc:	e7920101 	ldr	r0, [r2, r1, lsl #2]
  204e00:	e59d3004 	ldr	r3, [sp, #4]
  204e04:	e5880000 	str	r0, [r8]
  204e08:	e7828101 	str	r8, [r2, r1, lsl #2]
  204e0c:	e1a08004 	mov	r8, r4
  204e10:	eaffffe3 	b	204da4 <__multadd+0x6c>

00204e14 <__s2b>:
  204e14:	e92d43f8 	push	{r3, r4, r5, r6, r7, r8, r9, lr}
  204e18:	e1a08003 	mov	r8, r3
  204e1c:	e59f30d4 	ldr	r3, [pc, #212]	; 204ef8 <__s2b+0xe4>
  204e20:	e288c008 	add	ip, r8, #8
  204e24:	e0c3e39c 	smull	lr, r3, ip, r3
  204e28:	e1a0cfcc 	asr	ip, ip, #31
  204e2c:	e06c30c3 	rsb	r3, ip, r3, asr #1
  204e30:	e3530001 	cmp	r3, #1
  204e34:	e1a05000 	mov	r5, r0
  204e38:	e1a04001 	mov	r4, r1
  204e3c:	e1a07002 	mov	r7, r2
  204e40:	e59d6020 	ldr	r6, [sp, #32]
  204e44:	da000029 	ble	204ef0 <__s2b+0xdc>
  204e48:	e3a0c001 	mov	ip, #1
  204e4c:	e3a01000 	mov	r1, #0
  204e50:	e1a0c08c 	lsl	ip, ip, #1
  204e54:	e153000c 	cmp	r3, ip
  204e58:	e2811001 	add	r1, r1, #1
  204e5c:	cafffffb 	bgt	204e50 <__s2b+0x3c>
  204e60:	e1a00005 	mov	r0, r5
  204e64:	ebffff89 	bl	204c90 <_Balloc>
  204e68:	e3570009 	cmp	r7, #9
  204e6c:	e3a03001 	mov	r3, #1
  204e70:	e5806014 	str	r6, [r0, #20]
  204e74:	e5803010 	str	r3, [r0, #16]
  204e78:	d284400a 	addle	r4, r4, #10
  204e7c:	d3a07009 	movle	r7, #9
  204e80:	da00000c 	ble	204eb8 <__s2b+0xa4>
  204e84:	e2849009 	add	r9, r4, #9
  204e88:	e1a06009 	mov	r6, r9
  204e8c:	e0844007 	add	r4, r4, r7
  204e90:	e4d63001 	ldrb	r3, [r6], #1
  204e94:	e1a01000 	mov	r1, r0
  204e98:	e2433030 	sub	r3, r3, #48	; 0x30
  204e9c:	e1a00005 	mov	r0, r5
  204ea0:	e3a0200a 	mov	r2, #10
  204ea4:	ebffffa3 	bl	204d38 <__multadd>
  204ea8:	e1560004 	cmp	r6, r4
  204eac:	1afffff7 	bne	204e90 <__s2b+0x7c>
  204eb0:	e0894007 	add	r4, r9, r7
  204eb4:	e2444008 	sub	r4, r4, #8
  204eb8:	e1580007 	cmp	r8, r7
  204ebc:	da000009 	ble	204ee8 <__s2b+0xd4>
  204ec0:	e0677008 	rsb	r7, r7, r8
  204ec4:	e0847007 	add	r7, r4, r7
  204ec8:	e4d43001 	ldrb	r3, [r4], #1
  204ecc:	e1a01000 	mov	r1, r0
  204ed0:	e2433030 	sub	r3, r3, #48	; 0x30
  204ed4:	e1a00005 	mov	r0, r5
  204ed8:	e3a0200a 	mov	r2, #10
  204edc:	ebffff95 	bl	204d38 <__multadd>
  204ee0:	e1540007 	cmp	r4, r7
  204ee4:	1afffff7 	bne	204ec8 <__s2b+0xb4>
  204ee8:	e8bd43f8 	pop	{r3, r4, r5, r6, r7, r8, r9, lr}
  204eec:	e12fff1e 	bx	lr
  204ef0:	e3a01000 	mov	r1, #0
  204ef4:	eaffffd9 	b	204e60 <__s2b+0x4c>
  204ef8:	38e38e39 	.word	0x38e38e39

00204efc <__hi0bits>:
  204efc:	e1b03820 	lsrs	r3, r0, #16
  204f00:	01a00800 	lsleq	r0, r0, #16
  204f04:	03a03010 	moveq	r3, #16
  204f08:	13a03000 	movne	r3, #0
  204f0c:	e31004ff 	tst	r0, #-16777216	; 0xff000000
  204f10:	01a00400 	lsleq	r0, r0, #8
  204f14:	02833008 	addeq	r3, r3, #8
  204f18:	e310020f 	tst	r0, #-268435456	; 0xf0000000
  204f1c:	01a00200 	lsleq	r0, r0, #4
  204f20:	02833004 	addeq	r3, r3, #4
  204f24:	e3100103 	tst	r0, #-1073741824	; 0xc0000000
  204f28:	01a00100 	lsleq	r0, r0, #2
  204f2c:	02833002 	addeq	r3, r3, #2
  204f30:	e3500000 	cmp	r0, #0
  204f34:	ba000005 	blt	204f50 <__hi0bits+0x54>
  204f38:	e3100101 	tst	r0, #1073741824	; 0x40000000
  204f3c:	1a000001 	bne	204f48 <__hi0bits+0x4c>
  204f40:	e3a00020 	mov	r0, #32
  204f44:	e12fff1e 	bx	lr
  204f48:	e2830001 	add	r0, r3, #1
  204f4c:	e12fff1e 	bx	lr
  204f50:	e1a00003 	mov	r0, r3
  204f54:	e12fff1e 	bx	lr

00204f58 <__lo0bits>:
  204f58:	e5903000 	ldr	r3, [r0]
  204f5c:	e2132007 	ands	r2, r3, #7
  204f60:	0a000009 	beq	204f8c <__lo0bits+0x34>
  204f64:	e3130001 	tst	r3, #1
  204f68:	1a00001d 	bne	204fe4 <__lo0bits+0x8c>
  204f6c:	e3130002 	tst	r3, #2
  204f70:	11a030a3 	lsrne	r3, r3, #1
  204f74:	01a03123 	lsreq	r3, r3, #2
  204f78:	15803000 	strne	r3, [r0]
  204f7c:	05803000 	streq	r3, [r0]
  204f80:	13a00001 	movne	r0, #1
  204f84:	03a00002 	moveq	r0, #2
  204f88:	e12fff1e 	bx	lr
  204f8c:	e1b01803 	lsls	r1, r3, #16
  204f90:	01a03823 	lsreq	r3, r3, #16
  204f94:	03a02010 	moveq	r2, #16
  204f98:	e31300ff 	tst	r3, #255	; 0xff
  204f9c:	01a03423 	lsreq	r3, r3, #8
  204fa0:	02822008 	addeq	r2, r2, #8
  204fa4:	e313000f 	tst	r3, #15
  204fa8:	01a03223 	lsreq	r3, r3, #4
  204fac:	02822004 	addeq	r2, r2, #4
  204fb0:	e3130003 	tst	r3, #3
  204fb4:	01a03123 	lsreq	r3, r3, #2
  204fb8:	02822002 	addeq	r2, r2, #2
  204fbc:	e3130001 	tst	r3, #1
  204fc0:	1a000004 	bne	204fd8 <__lo0bits+0x80>
  204fc4:	e1b030a3 	lsrs	r3, r3, #1
  204fc8:	1a000001 	bne	204fd4 <__lo0bits+0x7c>
  204fcc:	e3a00020 	mov	r0, #32
  204fd0:	e12fff1e 	bx	lr
  204fd4:	e2822001 	add	r2, r2, #1
  204fd8:	e5803000 	str	r3, [r0]
  204fdc:	e1a00002 	mov	r0, r2
  204fe0:	e12fff1e 	bx	lr
  204fe4:	e3a00000 	mov	r0, #0
  204fe8:	e12fff1e 	bx	lr

00204fec <__i2b>:
  204fec:	e92d4010 	push	{r4, lr}
  204ff0:	e1a04001 	mov	r4, r1
  204ff4:	e3a01001 	mov	r1, #1
  204ff8:	ebffff24 	bl	204c90 <_Balloc>
  204ffc:	e3a02001 	mov	r2, #1
  205000:	e5804014 	str	r4, [r0, #20]
  205004:	e5802010 	str	r2, [r0, #16]
  205008:	e8bd4010 	pop	{r4, lr}
  20500c:	e12fff1e 	bx	lr

00205010 <__multiply>:
  205010:	e92d4ff0 	push	{r4, r5, r6, r7, r8, r9, sl, fp, lr}
  205014:	e5919010 	ldr	r9, [r1, #16]
  205018:	e592a010 	ldr	sl, [r2, #16]
  20501c:	e159000a 	cmp	r9, sl
  205020:	e24dd014 	sub	sp, sp, #20
  205024:	e1a08001 	mov	r8, r1
  205028:	e1a06002 	mov	r6, r2
  20502c:	aa000004 	bge	205044 <__multiply+0x34>
  205030:	e1a02009 	mov	r2, r9
  205034:	e1a08006 	mov	r8, r6
  205038:	e1a0900a 	mov	r9, sl
  20503c:	e1a06001 	mov	r6, r1
  205040:	e1a0a002 	mov	sl, r2
  205044:	e5983008 	ldr	r3, [r8, #8]
  205048:	e089500a 	add	r5, r9, sl
  20504c:	e5981004 	ldr	r1, [r8, #4]
  205050:	e1550003 	cmp	r5, r3
  205054:	c2811001 	addgt	r1, r1, #1
  205058:	ebffff0c 	bl	204c90 <_Balloc>
  20505c:	e2804014 	add	r4, r0, #20
  205060:	e0847105 	add	r7, r4, r5, lsl #2
  205064:	e1540007 	cmp	r4, r7
  205068:	e58d0004 	str	r0, [sp, #4]
  20506c:	31a03004 	movcc	r3, r4
  205070:	33a00000 	movcc	r0, #0
  205074:	2a000002 	bcs	205084 <__multiply+0x74>
  205078:	e4830004 	str	r0, [r3], #4
  20507c:	e1570003 	cmp	r7, r3
  205080:	8afffffc 	bhi	205078 <__multiply+0x68>
  205084:	e2866014 	add	r6, r6, #20
  205088:	e086a10a 	add	sl, r6, sl, lsl #2
  20508c:	e156000a 	cmp	r6, sl
  205090:	e2888014 	add	r8, r8, #20
  205094:	358d7008 	strcc	r7, [sp, #8]
  205098:	358d500c 	strcc	r5, [sp, #12]
  20509c:	e088c109 	add	ip, r8, r9, lsl #2
  2050a0:	31a0700a 	movcc	r7, sl
  2050a4:	31a05008 	movcc	r5, r8
  2050a8:	2a000040 	bcs	2051b0 <__multiply+0x1a0>
  2050ac:	e4968004 	ldr	r8, [r6], #4
  2050b0:	e1a09808 	lsl	r9, r8, #16
  2050b4:	e1b09829 	lsrs	r9, r9, #16
  2050b8:	0a00001b 	beq	20512c <__multiply+0x11c>
  2050bc:	e3a08000 	mov	r8, #0
  2050c0:	e1a02005 	mov	r2, r5
  2050c4:	e1a03004 	mov	r3, r4
  2050c8:	e1a0a008 	mov	sl, r8
  2050cc:	ea000000 	b	2050d4 <__multiply+0xc4>
  2050d0:	e1a03001 	mov	r3, r1
  2050d4:	e4920004 	ldr	r0, [r2], #4
  2050d8:	e5931000 	ldr	r1, [r3]
  2050dc:	e1a0b800 	lsl	fp, r0, #16
  2050e0:	e1a08801 	lsl	r8, r1, #16
  2050e4:	e1a0b82b 	lsr	fp, fp, #16
  2050e8:	e1a08828 	lsr	r8, r8, #16
  2050ec:	e0288b99 	mla	r8, r9, fp, r8
  2050f0:	e1a00820 	lsr	r0, r0, #16
  2050f4:	e1a01821 	lsr	r1, r1, #16
  2050f8:	e0211099 	mla	r1, r9, r0, r1
  2050fc:	e088800a 	add	r8, r8, sl
  205100:	e1a00808 	lsl	r0, r8, #16
  205104:	e1a00820 	lsr	r0, r0, #16
  205108:	e0818828 	add	r8, r1, r8, lsr #16
  20510c:	e1800808 	orr	r0, r0, r8, lsl #16
  205110:	e1a01003 	mov	r1, r3
  205114:	e15c0002 	cmp	ip, r2
  205118:	e1a0a828 	lsr	sl, r8, #16
  20511c:	e4810004 	str	r0, [r1], #4
  205120:	8affffea 	bhi	2050d0 <__multiply+0xc0>
  205124:	e583a004 	str	sl, [r3, #4]
  205128:	e5168004 	ldr	r8, [r6, #-4]
  20512c:	e1b08828 	lsrs	r8, r8, #16
  205130:	0a000019 	beq	20519c <__multiply+0x18c>
  205134:	e5949000 	ldr	r9, [r4]
  205138:	e3a0a000 	mov	sl, #0
  20513c:	e1a02004 	mov	r2, r4
  205140:	e1a00009 	mov	r0, r9
  205144:	e1a03005 	mov	r3, r5
  205148:	e1a0100a 	mov	r1, sl
  20514c:	e1d3a0b0 	ldrh	sl, [r3]
  205150:	e1a00820 	lsr	r0, r0, #16
  205154:	e02a0a98 	mla	sl, r8, sl, r0
  205158:	e1a09809 	lsl	r9, r9, #16
  20515c:	e08aa001 	add	sl, sl, r1
  205160:	e1a09829 	lsr	r9, r9, #16
  205164:	e189980a 	orr	r9, r9, sl, lsl #16
  205168:	e5829000 	str	r9, [r2]
  20516c:	e1a0b002 	mov	fp, r2
  205170:	e5b20004 	ldr	r0, [r2, #4]!
  205174:	e4939004 	ldr	r9, [r3], #4
  205178:	e1a01800 	lsl	r1, r0, #16
  20517c:	e1a01821 	lsr	r1, r1, #16
  205180:	e1a09829 	lsr	r9, r9, #16
  205184:	e0291998 	mla	r9, r8, r9, r1
  205188:	e15c0003 	cmp	ip, r3
  20518c:	e089982a 	add	r9, r9, sl, lsr #16
  205190:	e1a01829 	lsr	r1, r9, #16
  205194:	8affffec 	bhi	20514c <__multiply+0x13c>
  205198:	e58b9004 	str	r9, [fp, #4]
  20519c:	e1570006 	cmp	r7, r6
  2051a0:	e2844004 	add	r4, r4, #4
  2051a4:	8affffc0 	bhi	2050ac <__multiply+0x9c>
  2051a8:	e59d7008 	ldr	r7, [sp, #8]
  2051ac:	e59d500c 	ldr	r5, [sp, #12]
  2051b0:	e3550000 	cmp	r5, #0
  2051b4:	da000009 	ble	2051e0 <__multiply+0x1d0>
  2051b8:	e5173004 	ldr	r3, [r7, #-4]
  2051bc:	e3530000 	cmp	r3, #0
  2051c0:	e2477004 	sub	r7, r7, #4
  2051c4:	0a000003 	beq	2051d8 <__multiply+0x1c8>
  2051c8:	ea000004 	b	2051e0 <__multiply+0x1d0>
  2051cc:	e5373004 	ldr	r3, [r7, #-4]!
  2051d0:	e3530000 	cmp	r3, #0
  2051d4:	1a000001 	bne	2051e0 <__multiply+0x1d0>
  2051d8:	e2555001 	subs	r5, r5, #1
  2051dc:	1afffffa 	bne	2051cc <__multiply+0x1bc>
  2051e0:	e59d3004 	ldr	r3, [sp, #4]
  2051e4:	e1a00003 	mov	r0, r3
  2051e8:	e5835010 	str	r5, [r3, #16]
  2051ec:	e28dd014 	add	sp, sp, #20
  2051f0:	e8bd4ff0 	pop	{r4, r5, r6, r7, r8, r9, sl, fp, lr}
  2051f4:	e12fff1e 	bx	lr

002051f8 <__pow5mult>:
  2051f8:	e2123003 	ands	r3, r2, #3
  2051fc:	e92d41f0 	push	{r4, r5, r6, r7, r8, lr}
  205200:	e1a04002 	mov	r4, r2
  205204:	e1a07000 	mov	r7, r0
  205208:	e1a06001 	mov	r6, r1
  20520c:	1a000025 	bne	2052a8 <__pow5mult+0xb0>
  205210:	e1b04144 	asrs	r4, r4, #2
  205214:	0a000019 	beq	205280 <__pow5mult+0x88>
  205218:	e5975048 	ldr	r5, [r7, #72]	; 0x48
  20521c:	e3550000 	cmp	r5, #0
  205220:	0a000027 	beq	2052c4 <__pow5mult+0xcc>
  205224:	e3a08000 	mov	r8, #0
  205228:	ea000005 	b	205244 <__pow5mult+0x4c>
  20522c:	e1b040c4 	asrs	r4, r4, #1
  205230:	0a000012 	beq	205280 <__pow5mult+0x88>
  205234:	e5950000 	ldr	r0, [r5]
  205238:	e3500000 	cmp	r0, #0
  20523c:	0a000012 	beq	20528c <__pow5mult+0x94>
  205240:	e1a05000 	mov	r5, r0
  205244:	e3140001 	tst	r4, #1
  205248:	0afffff7 	beq	20522c <__pow5mult+0x34>
  20524c:	e1a01006 	mov	r1, r6
  205250:	e1a02005 	mov	r2, r5
  205254:	e1a00007 	mov	r0, r7
  205258:	ebffff6c 	bl	205010 <__multiply>
  20525c:	e3560000 	cmp	r6, #0
  205260:	15962004 	ldrne	r2, [r6, #4]
  205264:	1597304c 	ldrne	r3, [r7, #76]	; 0x4c
  205268:	17931102 	ldrne	r1, [r3, r2, lsl #2]
  20526c:	15861000 	strne	r1, [r6]
  205270:	17836102 	strne	r6, [r3, r2, lsl #2]
  205274:	e1b040c4 	asrs	r4, r4, #1
  205278:	e1a06000 	mov	r6, r0
  20527c:	1affffec 	bne	205234 <__pow5mult+0x3c>
  205280:	e1a00006 	mov	r0, r6
  205284:	e8bd41f0 	pop	{r4, r5, r6, r7, r8, lr}
  205288:	e12fff1e 	bx	lr
  20528c:	e1a00007 	mov	r0, r7
  205290:	e1a01005 	mov	r1, r5
  205294:	e1a02005 	mov	r2, r5
  205298:	ebffff5c 	bl	205010 <__multiply>
  20529c:	e5850000 	str	r0, [r5]
  2052a0:	e5808000 	str	r8, [r0]
  2052a4:	eaffffe5 	b	205240 <__pow5mult+0x48>
  2052a8:	e59f2044 	ldr	r2, [pc, #68]	; 2052f4 <__pow5mult+0xfc>
  2052ac:	e2433001 	sub	r3, r3, #1
  2052b0:	e7922103 	ldr	r2, [r2, r3, lsl #2]
  2052b4:	e3a03000 	mov	r3, #0
  2052b8:	ebfffe9e 	bl	204d38 <__multadd>
  2052bc:	e1a06000 	mov	r6, r0
  2052c0:	eaffffd2 	b	205210 <__pow5mult+0x18>
  2052c4:	e3a01001 	mov	r1, #1
  2052c8:	e1a00007 	mov	r0, r7
  2052cc:	ebfffe6f 	bl	204c90 <_Balloc>
  2052d0:	e59f1020 	ldr	r1, [pc, #32]	; 2052f8 <__pow5mult+0x100>
  2052d4:	e3a02001 	mov	r2, #1
  2052d8:	e3a03000 	mov	r3, #0
  2052dc:	e5801014 	str	r1, [r0, #20]
  2052e0:	e5802010 	str	r2, [r0, #16]
  2052e4:	e1a05000 	mov	r5, r0
  2052e8:	e5870048 	str	r0, [r7, #72]	; 0x48
  2052ec:	e5803000 	str	r3, [r0]
  2052f0:	eaffffcb 	b	205224 <__pow5mult+0x2c>
  2052f4:	002086b0 	.word	0x002086b0
  2052f8:	00000271 	.word	0x00000271

002052fc <__lshift>:
  2052fc:	e92d47f0 	push	{r4, r5, r6, r7, r8, r9, sl, lr}
  205300:	e5918010 	ldr	r8, [r1, #16]
  205304:	e1a092c2 	asr	r9, r2, #5
  205308:	e5913008 	ldr	r3, [r1, #8]
  20530c:	e0898008 	add	r8, r9, r8
  205310:	e2885001 	add	r5, r8, #1
  205314:	e1550003 	cmp	r5, r3
  205318:	e1a06001 	mov	r6, r1
  20531c:	e1a0a002 	mov	sl, r2
  205320:	e1a07000 	mov	r7, r0
  205324:	e5911004 	ldr	r1, [r1, #4]
  205328:	da000003 	ble	20533c <__lshift+0x40>
  20532c:	e1a03083 	lsl	r3, r3, #1
  205330:	e1550003 	cmp	r5, r3
  205334:	e2811001 	add	r1, r1, #1
  205338:	cafffffb 	bgt	20532c <__lshift+0x30>
  20533c:	e1a00007 	mov	r0, r7
  205340:	ebfffe52 	bl	204c90 <_Balloc>
  205344:	e3590000 	cmp	r9, #0
  205348:	e280c014 	add	ip, r0, #20
  20534c:	da000007 	ble	205370 <__lshift+0x74>
  205350:	e3a03000 	mov	r3, #0
  205354:	e1a02003 	mov	r2, r3
  205358:	e1a0400c 	mov	r4, ip
  20535c:	e2833001 	add	r3, r3, #1
  205360:	e1530009 	cmp	r3, r9
  205364:	e4842004 	str	r2, [r4], #4
  205368:	1afffffb 	bne	20535c <__lshift+0x60>
  20536c:	e08cc103 	add	ip, ip, r3, lsl #2
  205370:	e5961010 	ldr	r1, [r6, #16]
  205374:	e2863014 	add	r3, r6, #20
  205378:	e21aa01f 	ands	sl, sl, #31
  20537c:	e0831101 	add	r1, r3, r1, lsl #2
  205380:	0a000017 	beq	2053e4 <__lshift+0xe8>
  205384:	e26a9020 	rsb	r9, sl, #32
  205388:	e3a02000 	mov	r2, #0
  20538c:	ea000000 	b	205394 <__lshift+0x98>
  205390:	e1a0c004 	mov	ip, r4
  205394:	e5934000 	ldr	r4, [r3]
  205398:	e1822a14 	orr	r2, r2, r4, lsl sl
  20539c:	e1a0400c 	mov	r4, ip
  2053a0:	e4842004 	str	r2, [r4], #4
  2053a4:	e4932004 	ldr	r2, [r3], #4
  2053a8:	e1530001 	cmp	r3, r1
  2053ac:	e1a02932 	lsr	r2, r2, r9
  2053b0:	3afffff6 	bcc	205390 <__lshift+0x94>
  2053b4:	e3520000 	cmp	r2, #0
  2053b8:	e58c2004 	str	r2, [ip, #4]
  2053bc:	12885002 	addne	r5, r8, #2
  2053c0:	e597304c 	ldr	r3, [r7, #76]	; 0x4c
  2053c4:	e5962004 	ldr	r2, [r6, #4]
  2053c8:	e7931102 	ldr	r1, [r3, r2, lsl #2]
  2053cc:	e2455001 	sub	r5, r5, #1
  2053d0:	e5805010 	str	r5, [r0, #16]
  2053d4:	e5861000 	str	r1, [r6]
  2053d8:	e7836102 	str	r6, [r3, r2, lsl #2]
  2053dc:	e8bd47f0 	pop	{r4, r5, r6, r7, r8, r9, sl, lr}
  2053e0:	e12fff1e 	bx	lr
  2053e4:	e4932004 	ldr	r2, [r3], #4
  2053e8:	e1510003 	cmp	r1, r3
  2053ec:	e48c2004 	str	r2, [ip], #4
  2053f0:	9afffff2 	bls	2053c0 <__lshift+0xc4>
  2053f4:	e4932004 	ldr	r2, [r3], #4
  2053f8:	e1510003 	cmp	r1, r3
  2053fc:	e48c2004 	str	r2, [ip], #4
  205400:	8afffff7 	bhi	2053e4 <__lshift+0xe8>
  205404:	eaffffed 	b	2053c0 <__lshift+0xc4>

00205408 <__mcmp>:
  205408:	e5902010 	ldr	r2, [r0, #16]
  20540c:	e5913010 	ldr	r3, [r1, #16]
  205410:	e0522003 	subs	r2, r2, r3
  205414:	1a00000f 	bne	205458 <__mcmp+0x50>
  205418:	e1a03103 	lsl	r3, r3, #2
  20541c:	e2800014 	add	r0, r0, #20
  205420:	e2811014 	add	r1, r1, #20
  205424:	e0811003 	add	r1, r1, r3
  205428:	e0803003 	add	r3, r0, r3
  20542c:	ea000001 	b	205438 <__mcmp+0x30>
  205430:	e1500003 	cmp	r0, r3
  205434:	2a000009 	bcs	205460 <__mcmp+0x58>
  205438:	e5332004 	ldr	r2, [r3, #-4]!
  20543c:	e531c004 	ldr	ip, [r1, #-4]!
  205440:	e152000c 	cmp	r2, ip
  205444:	0afffff9 	beq	205430 <__mcmp+0x28>
  205448:	e15c0002 	cmp	ip, r2
  20544c:	93a00001 	movls	r0, #1
  205450:	83e00000 	mvnhi	r0, #0
  205454:	e12fff1e 	bx	lr
  205458:	e1a00002 	mov	r0, r2
  20545c:	e12fff1e 	bx	lr
  205460:	e3a00000 	mov	r0, #0
  205464:	e12fff1e 	bx	lr

00205468 <__mdiff>:
  205468:	e92d47f0 	push	{r4, r5, r6, r7, r8, r9, sl, lr}
  20546c:	e1a05001 	mov	r5, r1
  205470:	e1a06000 	mov	r6, r0
  205474:	e1a01002 	mov	r1, r2
  205478:	e1a00005 	mov	r0, r5
  20547c:	e1a04002 	mov	r4, r2
  205480:	ebffffe0 	bl	205408 <__mcmp>
  205484:	e2507000 	subs	r7, r0, #0
  205488:	0a00003f 	beq	20558c <__mdiff+0x124>
  20548c:	b1a03005 	movlt	r3, r5
  205490:	b1a05004 	movlt	r5, r4
  205494:	e1a00006 	mov	r0, r6
  205498:	e5951004 	ldr	r1, [r5, #4]
  20549c:	b1a04003 	movlt	r4, r3
  2054a0:	a3a08000 	movge	r8, #0
  2054a4:	b3a08001 	movlt	r8, #1
  2054a8:	ebfffdf8 	bl	204c90 <_Balloc>
  2054ac:	e5949010 	ldr	r9, [r4, #16]
  2054b0:	e5957010 	ldr	r7, [r5, #16]
  2054b4:	e285c014 	add	ip, r5, #20
  2054b8:	e2844014 	add	r4, r4, #20
  2054bc:	e580800c 	str	r8, [r0, #12]
  2054c0:	e2803014 	add	r3, r0, #20
  2054c4:	e08c8107 	add	r8, ip, r7, lsl #2
  2054c8:	e0849109 	add	r9, r4, r9, lsl #2
  2054cc:	e3a02000 	mov	r2, #0
  2054d0:	e49c5004 	ldr	r5, [ip], #4
  2054d4:	e4946004 	ldr	r6, [r4], #4
  2054d8:	e1a01805 	lsl	r1, r5, #16
  2054dc:	e0822821 	add	r2, r2, r1, lsr #16
  2054e0:	e1a0a806 	lsl	sl, r6, #16
  2054e4:	e042182a 	sub	r1, r2, sl, lsr #16
  2054e8:	e1a02826 	lsr	r2, r6, #16
  2054ec:	e0622825 	rsb	r2, r2, r5, lsr #16
  2054f0:	e1a05801 	lsl	r5, r1, #16
  2054f4:	e0822841 	add	r2, r2, r1, asr #16
  2054f8:	e1a05825 	lsr	r5, r5, #16
  2054fc:	e1855802 	orr	r5, r5, r2, lsl #16
  205500:	e1590004 	cmp	r9, r4
  205504:	e4835004 	str	r5, [r3], #4
  205508:	e1a02842 	asr	r2, r2, #16
  20550c:	e1a0100c 	mov	r1, ip
  205510:	8affffee 	bhi	2054d0 <__mdiff+0x68>
  205514:	e158000c 	cmp	r8, ip
  205518:	e1a06003 	mov	r6, r3
  20551c:	9a000010 	bls	205564 <__mdiff+0xfc>
  205520:	e4914004 	ldr	r4, [r1], #4
  205524:	e1a05804 	lsl	r5, r4, #16
  205528:	e0822825 	add	r2, r2, r5, lsr #16
  20552c:	e1a05802 	lsl	r5, r2, #16
  205530:	e1a04824 	lsr	r4, r4, #16
  205534:	e0842842 	add	r2, r4, r2, asr #16
  205538:	e1a05825 	lsr	r5, r5, #16
  20553c:	e1855802 	orr	r5, r5, r2, lsl #16
  205540:	e1580001 	cmp	r8, r1
  205544:	e4835004 	str	r5, [r3], #4
  205548:	e1a02842 	asr	r2, r2, #16
  20554c:	8afffff3 	bhi	205520 <__mdiff+0xb8>
  205550:	e1e0300c 	mvn	r3, ip
  205554:	e0833008 	add	r3, r3, r8
  205558:	e3c33003 	bic	r3, r3, #3
  20555c:	e2833004 	add	r3, r3, #4
  205560:	e0863003 	add	r3, r6, r3
  205564:	e3550000 	cmp	r5, #0
  205568:	e2433004 	sub	r3, r3, #4
  20556c:	1a000003 	bne	205580 <__mdiff+0x118>
  205570:	e5332004 	ldr	r2, [r3, #-4]!
  205574:	e3520000 	cmp	r2, #0
  205578:	e2477001 	sub	r7, r7, #1
  20557c:	0afffffb 	beq	205570 <__mdiff+0x108>
  205580:	e5807010 	str	r7, [r0, #16]
  205584:	e8bd47f0 	pop	{r4, r5, r6, r7, r8, r9, sl, lr}
  205588:	e12fff1e 	bx	lr
  20558c:	e1a00006 	mov	r0, r6
  205590:	e1a01007 	mov	r1, r7
  205594:	ebfffdbd 	bl	204c90 <_Balloc>
  205598:	e3a03001 	mov	r3, #1
  20559c:	e5807014 	str	r7, [r0, #20]
  2055a0:	e5803010 	str	r3, [r0, #16]
  2055a4:	e8bd47f0 	pop	{r4, r5, r6, r7, r8, r9, sl, lr}
  2055a8:	e12fff1e 	bx	lr

002055ac <__ulp>:
  2055ac:	e59f3058 	ldr	r3, [pc, #88]	; 20560c <__ulp+0x60>
  2055b0:	e0013003 	and	r3, r1, r3
  2055b4:	e243350d 	sub	r3, r3, #54525952	; 0x3400000
  2055b8:	e3530000 	cmp	r3, #0
  2055bc:	da000002 	ble	2055cc <__ulp+0x20>
  2055c0:	e1a01003 	mov	r1, r3
  2055c4:	e3a00000 	mov	r0, #0
  2055c8:	e12fff1e 	bx	lr
  2055cc:	e2633000 	rsb	r3, r3, #0
  2055d0:	e1a03a43 	asr	r3, r3, #20
  2055d4:	e3530013 	cmp	r3, #19
  2055d8:	da000007 	ble	2055fc <__ulp+0x50>
  2055dc:	e3530032 	cmp	r3, #50	; 0x32
  2055e0:	d2633033 	rsble	r3, r3, #51	; 0x33
  2055e4:	d3a02001 	movle	r2, #1
  2055e8:	d1a03312 	lslle	r3, r2, r3
  2055ec:	c3a03001 	movgt	r3, #1
  2055f0:	e3a01000 	mov	r1, #0
  2055f4:	e1a00003 	mov	r0, r3
  2055f8:	e12fff1e 	bx	lr
  2055fc:	e3a02702 	mov	r2, #524288	; 0x80000
  205600:	e1a01352 	asr	r1, r2, r3
  205604:	e3a00000 	mov	r0, #0
  205608:	e12fff1e 	bx	lr
  20560c:	7ff00000 	.word	0x7ff00000

00205610 <__b2d>:
  205610:	e92d40f8 	push	{r3, r4, r5, r6, r7, lr}
  205614:	e5904010 	ldr	r4, [r0, #16]
  205618:	e2806014 	add	r6, r0, #20
  20561c:	e0864104 	add	r4, r6, r4, lsl #2
  205620:	e5145004 	ldr	r5, [r4, #-4]
  205624:	e1a00005 	mov	r0, r5
  205628:	e1a07001 	mov	r7, r1
  20562c:	ebfffe32 	bl	204efc <__hi0bits>
  205630:	e2603020 	rsb	r3, r0, #32
  205634:	e350000a 	cmp	r0, #10
  205638:	e5873000 	str	r3, [r7]
  20563c:	e2441004 	sub	r1, r4, #4
  205640:	ca00000d 	bgt	20567c <__b2d+0x6c>
  205644:	e260c00b 	rsb	ip, r0, #11
  205648:	e1a03c35 	lsr	r3, r5, ip
  20564c:	e1560001 	cmp	r6, r1
  205650:	e38315ff 	orr	r1, r3, #1069547520	; 0x3fc00000
  205654:	e3813603 	orr	r3, r1, #3145728	; 0x300000
  205658:	35141008 	ldrcc	r1, [r4, #-8]
  20565c:	31a0cc31 	lsrcc	ip, r1, ip
  205660:	e2800015 	add	r0, r0, #21
  205664:	23a0c000 	movcs	ip, #0
  205668:	e18c2015 	orr	r2, ip, r5, lsl r0
  20566c:	e1a01003 	mov	r1, r3
  205670:	e1a00002 	mov	r0, r2
  205674:	e8bd40f8 	pop	{r3, r4, r5, r6, r7, lr}
  205678:	e12fff1e 	bx	lr
  20567c:	e1560001 	cmp	r6, r1
  205680:	32441008 	subcc	r1, r4, #8
  205684:	3514c008 	ldrcc	ip, [r4, #-8]
  205688:	23a0c000 	movcs	ip, #0
  20568c:	e250400b 	subs	r4, r0, #11
  205690:	0a00000d 	beq	2056cc <__b2d+0xbc>
  205694:	e1a05415 	lsl	r5, r5, r4
  205698:	e1510006 	cmp	r1, r6
  20569c:	85111004 	ldrhi	r1, [r1, #-4]
  2056a0:	e38555ff 	orr	r5, r5, #1069547520	; 0x3fc00000
  2056a4:	e260002b 	rsb	r0, r0, #43	; 0x2b
  2056a8:	e3855603 	orr	r5, r5, #3145728	; 0x300000
  2056ac:	e185303c 	orr	r3, r5, ip, lsr r0
  2056b0:	81a00031 	lsrhi	r0, r1, r0
  2056b4:	93a00000 	movls	r0, #0
  2056b8:	e180241c 	orr	r2, r0, ip, lsl r4
  2056bc:	e1a01003 	mov	r1, r3
  2056c0:	e1a00002 	mov	r0, r2
  2056c4:	e8bd40f8 	pop	{r3, r4, r5, r6, r7, lr}
  2056c8:	e12fff1e 	bx	lr
  2056cc:	e38555ff 	orr	r5, r5, #1069547520	; 0x3fc00000
  2056d0:	e3853603 	orr	r3, r5, #3145728	; 0x300000
  2056d4:	e1a0200c 	mov	r2, ip
  2056d8:	e1a01003 	mov	r1, r3
  2056dc:	e1a00002 	mov	r0, r2
  2056e0:	e8bd40f8 	pop	{r3, r4, r5, r6, r7, lr}
  2056e4:	e12fff1e 	bx	lr

002056e8 <__d2b>:
  2056e8:	e92d43f0 	push	{r4, r5, r6, r7, r8, r9, lr}
  2056ec:	e3a01001 	mov	r1, #1
  2056f0:	e24dd00c 	sub	sp, sp, #12
  2056f4:	e1a05003 	mov	r5, r3
  2056f8:	e1a04002 	mov	r4, r2
  2056fc:	e59d8028 	ldr	r8, [sp, #40]	; 0x28
  205700:	e59d702c 	ldr	r7, [sp, #44]	; 0x2c
  205704:	ebfffd61 	bl	204c90 <_Balloc>
  205708:	e3c53102 	bic	r3, r5, #-2147483648	; 0x80000000
  20570c:	e1b09a23 	lsrs	r9, r3, #20
  205710:	e3c534ff 	bic	r3, r5, #-16777216	; 0xff000000
  205714:	e3c3360f 	bic	r3, r3, #15728640	; 0xf00000
  205718:	13833601 	orrne	r3, r3, #1048576	; 0x100000
  20571c:	e3540000 	cmp	r4, #0
  205720:	e1a06000 	mov	r6, r0
  205724:	e58d3004 	str	r3, [sp, #4]
  205728:	0a00001e 	beq	2057a8 <__d2b+0xc0>
  20572c:	e28d0008 	add	r0, sp, #8
  205730:	e5204008 	str	r4, [r0, #-8]!
  205734:	e1a0000d 	mov	r0, sp
  205738:	ebfffe06 	bl	204f58 <__lo0bits>
  20573c:	e89d000c 	ldm	sp, {r2, r3}
  205740:	e3500000 	cmp	r0, #0
  205744:	12601020 	rsbne	r1, r0, #32
  205748:	11822113 	orrne	r2, r2, r3, lsl r1
  20574c:	11a03033 	lsrne	r3, r3, r0
  205750:	15862014 	strne	r2, [r6, #20]
  205754:	158d3004 	strne	r3, [sp, #4]
  205758:	05862014 	streq	r2, [r6, #20]
  20575c:	e3530000 	cmp	r3, #0
  205760:	03a04001 	moveq	r4, #1
  205764:	13a04002 	movne	r4, #2
  205768:	e3590000 	cmp	r9, #0
  20576c:	e5863018 	str	r3, [r6, #24]
  205770:	e5864010 	str	r4, [r6, #16]
  205774:	1a000014 	bne	2057cc <__d2b+0xe4>
  205778:	e2400e43 	sub	r0, r0, #1072	; 0x430
  20577c:	e0863104 	add	r3, r6, r4, lsl #2
  205780:	e2400002 	sub	r0, r0, #2
  205784:	e5880000 	str	r0, [r8]
  205788:	e5930010 	ldr	r0, [r3, #16]
  20578c:	ebfffdda 	bl	204efc <__hi0bits>
  205790:	e0600284 	rsb	r0, r0, r4, lsl #5
  205794:	e5870000 	str	r0, [r7]
  205798:	e1a00006 	mov	r0, r6
  20579c:	e28dd00c 	add	sp, sp, #12
  2057a0:	e8bd43f0 	pop	{r4, r5, r6, r7, r8, r9, lr}
  2057a4:	e12fff1e 	bx	lr
  2057a8:	e28d0004 	add	r0, sp, #4
  2057ac:	ebfffde9 	bl	204f58 <__lo0bits>
  2057b0:	e59d3004 	ldr	r3, [sp, #4]
  2057b4:	e3a04001 	mov	r4, #1
  2057b8:	e3590000 	cmp	r9, #0
  2057bc:	e5863014 	str	r3, [r6, #20]
  2057c0:	e5864010 	str	r4, [r6, #16]
  2057c4:	e2800020 	add	r0, r0, #32
  2057c8:	0affffea 	beq	205778 <__d2b+0x90>
  2057cc:	e2499e43 	sub	r9, r9, #1072	; 0x430
  2057d0:	e2499003 	sub	r9, r9, #3
  2057d4:	e0899000 	add	r9, r9, r0
  2057d8:	e2600035 	rsb	r0, r0, #53	; 0x35
  2057dc:	e5889000 	str	r9, [r8]
  2057e0:	e5870000 	str	r0, [r7]
  2057e4:	e1a00006 	mov	r0, r6
  2057e8:	e28dd00c 	add	sp, sp, #12
  2057ec:	e8bd43f0 	pop	{r4, r5, r6, r7, r8, r9, lr}
  2057f0:	e12fff1e 	bx	lr

002057f4 <__ratio>:
  2057f4:	e92d40f0 	push	{r4, r5, r6, r7, lr}
  2057f8:	e24dd00c 	sub	sp, sp, #12
  2057fc:	e1a06001 	mov	r6, r1
  205800:	e1a0100d 	mov	r1, sp
  205804:	e1a07000 	mov	r7, r0
  205808:	ebffff80 	bl	205610 <__b2d>
  20580c:	e1a05001 	mov	r5, r1
  205810:	e1a04000 	mov	r4, r0
  205814:	e28d1004 	add	r1, sp, #4
  205818:	e1a00006 	mov	r0, r6
  20581c:	ebffff7b 	bl	205610 <__b2d>
  205820:	e597e010 	ldr	lr, [r7, #16]
  205824:	e1a03001 	mov	r3, r1
  205828:	e1a02000 	mov	r2, r0
  20582c:	e596c010 	ldr	ip, [r6, #16]
  205830:	e89d0003 	ldm	sp, {r0, r1}
  205834:	e06cc00e 	rsb	ip, ip, lr
  205838:	e0611000 	rsb	r1, r1, r0
  20583c:	e081c28c 	add	ip, r1, ip, lsl #5
  205840:	e35c0000 	cmp	ip, #0
  205844:	e1a01005 	mov	r1, r5
  205848:	c0851a0c 	addgt	r1, r5, ip, lsl #20
  20584c:	e1a07003 	mov	r7, r3
  205850:	c1a04004 	movgt	r4, r4
  205854:	c1a05001 	movgt	r5, r1
  205858:	d0437a0c 	suble	r7, r3, ip, lsl #20
  20585c:	d1a02002 	movle	r2, r2
  205860:	d1a03007 	movle	r3, r7
  205864:	e1a00004 	mov	r0, r4
  205868:	e1a01005 	mov	r1, r5
  20586c:	eb000a87 	bl	208290 <__aeabi_ddiv>
  205870:	e28dd00c 	add	sp, sp, #12
  205874:	e8bd40f0 	pop	{r4, r5, r6, r7, lr}
  205878:	e12fff1e 	bx	lr

0020587c <_mprec_log10>:
  20587c:	e3500017 	cmp	r0, #23
  205880:	e92d4010 	push	{r4, lr}
  205884:	e1a04000 	mov	r4, r0
  205888:	da000008 	ble	2058b0 <_mprec_log10+0x34>
  20588c:	e59f1034 	ldr	r1, [pc, #52]	; 2058c8 <_mprec_log10+0x4c>
  205890:	e3a00000 	mov	r0, #0
  205894:	e3a02000 	mov	r2, #0
  205898:	e59f302c 	ldr	r3, [pc, #44]	; 2058cc <_mprec_log10+0x50>
  20589c:	eb0009d7 	bl	208000 <__aeabi_dmul>
  2058a0:	e2544001 	subs	r4, r4, #1
  2058a4:	1afffffa 	bne	205894 <_mprec_log10+0x18>
  2058a8:	e8bd4010 	pop	{r4, lr}
  2058ac:	e12fff1e 	bx	lr
  2058b0:	e59f3018 	ldr	r3, [pc, #24]	; 2058d0 <_mprec_log10+0x54>
  2058b4:	e0834180 	add	r4, r3, r0, lsl #3
  2058b8:	e2841010 	add	r1, r4, #16
  2058bc:	e8910003 	ldm	r1, {r0, r1}
  2058c0:	e8bd4010 	pop	{r4, lr}
  2058c4:	e12fff1e 	bx	lr
  2058c8:	3ff00000 	.word	0x3ff00000
  2058cc:	40240000 	.word	0x40240000
  2058d0:	002086b0 	.word	0x002086b0

002058d4 <__copybits>:
  2058d4:	e92d0030 	push	{r4, r5}
  2058d8:	e5924010 	ldr	r4, [r2, #16]
  2058dc:	e2823014 	add	r3, r2, #20
  2058e0:	e2411001 	sub	r1, r1, #1
  2058e4:	e1a052c1 	asr	r5, r1, #5
  2058e8:	e0834104 	add	r4, r3, r4, lsl #2
  2058ec:	e2855001 	add	r5, r5, #1
  2058f0:	e1530004 	cmp	r3, r4
  2058f4:	e0805105 	add	r5, r0, r5, lsl #2
  2058f8:	2a000009 	bcs	205924 <__copybits+0x50>
  2058fc:	e1a01000 	mov	r1, r0
  205900:	e493c004 	ldr	ip, [r3], #4
  205904:	e1540003 	cmp	r4, r3
  205908:	e481c004 	str	ip, [r1], #4
  20590c:	8afffffb 	bhi	205900 <__copybits+0x2c>
  205910:	e0623004 	rsb	r3, r2, r4
  205914:	e2433015 	sub	r3, r3, #21
  205918:	e3c33003 	bic	r3, r3, #3
  20591c:	e2833004 	add	r3, r3, #4
  205920:	e0800003 	add	r0, r0, r3
  205924:	e1550000 	cmp	r5, r0
  205928:	9a000003 	bls	20593c <__copybits+0x68>
  20592c:	e3a03000 	mov	r3, #0
  205930:	e4803004 	str	r3, [r0], #4
  205934:	e1550000 	cmp	r5, r0
  205938:	8afffffc 	bhi	205930 <__copybits+0x5c>
  20593c:	e8bd0030 	pop	{r4, r5}
  205940:	e12fff1e 	bx	lr

00205944 <__any_on>:
  205944:	e5903010 	ldr	r3, [r0, #16]
  205948:	e1a022c1 	asr	r2, r1, #5
  20594c:	e1530002 	cmp	r3, r2
  205950:	e2800014 	add	r0, r0, #20
  205954:	b0803103 	addlt	r3, r0, r3, lsl #2
  205958:	ba00000a 	blt	205988 <__any_on+0x44>
  20595c:	da000008 	ble	205984 <__any_on+0x40>
  205960:	e211101f 	ands	r1, r1, #31
  205964:	0a000006 	beq	205984 <__any_on+0x40>
  205968:	e7903102 	ldr	r3, [r0, r2, lsl #2]
  20596c:	e1a0c133 	lsr	ip, r3, r1
  205970:	e153011c 	cmp	r3, ip, lsl r1
  205974:	e0803102 	add	r3, r0, r2, lsl #2
  205978:	0a000002 	beq	205988 <__any_on+0x44>
  20597c:	e3a00001 	mov	r0, #1
  205980:	e12fff1e 	bx	lr
  205984:	e0803102 	add	r3, r0, r2, lsl #2
  205988:	e1500003 	cmp	r0, r3
  20598c:	2a000009 	bcs	2059b8 <__any_on+0x74>
  205990:	e5132004 	ldr	r2, [r3, #-4]
  205994:	e3520000 	cmp	r2, #0
  205998:	e2433004 	sub	r3, r3, #4
  20599c:	0a000003 	beq	2059b0 <__any_on+0x6c>
  2059a0:	eafffff5 	b	20597c <__any_on+0x38>
  2059a4:	e5332004 	ldr	r2, [r3, #-4]!
  2059a8:	e3520000 	cmp	r2, #0
  2059ac:	1afffff2 	bne	20597c <__any_on+0x38>
  2059b0:	e1500003 	cmp	r0, r3
  2059b4:	3afffffa 	bcc	2059a4 <__any_on+0x60>
  2059b8:	e3a00000 	mov	r0, #0
  2059bc:	e12fff1e 	bx	lr

002059c0 <__fpclassifyd>:
  2059c0:	e1903001 	orrs	r3, r0, r1
  2059c4:	1a000001 	bne	2059d0 <__fpclassifyd+0x10>
  2059c8:	e3a00002 	mov	r0, #2
  2059cc:	e12fff1e 	bx	lr
  2059d0:	e2703001 	rsbs	r3, r0, #1
  2059d4:	33a03000 	movcc	r3, #0
  2059d8:	e3510102 	cmp	r1, #-2147483648	; 0x80000000
  2059dc:	03500000 	cmpeq	r0, #0
  2059e0:	0afffff8 	beq	2059c8 <__fpclassifyd+0x8>
  2059e4:	e3c12102 	bic	r2, r1, #-2147483648	; 0x80000000
  2059e8:	e59f1034 	ldr	r1, [pc, #52]	; 205a24 <__fpclassifyd+0x64>
  2059ec:	e2420601 	sub	r0, r2, #1048576	; 0x100000
  2059f0:	e1500001 	cmp	r0, r1
  2059f4:	8a000001 	bhi	205a00 <__fpclassifyd+0x40>
  2059f8:	e3a00004 	mov	r0, #4
  2059fc:	e12fff1e 	bx	lr
  205a00:	e3520601 	cmp	r2, #1048576	; 0x100000
  205a04:	2a000001 	bcs	205a10 <__fpclassifyd+0x50>
  205a08:	e3a00003 	mov	r0, #3
  205a0c:	e12fff1e 	bx	lr
  205a10:	e59f0010 	ldr	r0, [pc, #16]	; 205a28 <__fpclassifyd+0x68>
  205a14:	e1520000 	cmp	r2, r0
  205a18:	13a00000 	movne	r0, #0
  205a1c:	02030001 	andeq	r0, r3, #1
  205a20:	e12fff1e 	bx	lr
  205a24:	7fdfffff 	.word	0x7fdfffff
  205a28:	7ff00000 	.word	0x7ff00000

00205a2c <_sbrk_r>:
  205a2c:	e92d4038 	push	{r3, r4, r5, lr}
  205a30:	e59f4034 	ldr	r4, [pc, #52]	; 205a6c <_sbrk_r+0x40>
  205a34:	e3a03000 	mov	r3, #0
  205a38:	e1a05000 	mov	r5, r0
  205a3c:	e1a00001 	mov	r0, r1
  205a40:	e5843000 	str	r3, [r4]
  205a44:	eb0004d0 	bl	206d8c <_sbrk>
  205a48:	e3700001 	cmn	r0, #1
  205a4c:	0a000001 	beq	205a58 <_sbrk_r+0x2c>
  205a50:	e8bd4038 	pop	{r3, r4, r5, lr}
  205a54:	e12fff1e 	bx	lr
  205a58:	e5943000 	ldr	r3, [r4]
  205a5c:	e3530000 	cmp	r3, #0
  205a60:	15853000 	strne	r3, [r5]
  205a64:	e8bd4038 	pop	{r3, r4, r5, lr}
  205a68:	e12fff1e 	bx	lr
  205a6c:	00209338 	.word	0x00209338

00205a70 <strcmp>:
  205a70:	e0202001 	eor	r2, r0, r1
  205a74:	e3120003 	tst	r2, #3
  205a78:	1a000021 	bne	205b04 <strcmp_unaligned>
  205a7c:	e2102003 	ands	r2, r0, #3
  205a80:	e3c00003 	bic	r0, r0, #3
  205a84:	e3c11003 	bic	r1, r1, #3
  205a88:	e490c004 	ldr	ip, [r0], #4
  205a8c:	04913004 	ldreq	r3, [r1], #4
  205a90:	0a000006 	beq	205ab0 <strcmp+0x40>
  205a94:	e2222003 	eor	r2, r2, #3
  205a98:	e1a02182 	lsl	r2, r2, #3
  205a9c:	e3e034ff 	mvn	r3, #-16777216	; 0xff000000
  205aa0:	e1a02233 	lsr	r2, r3, r2
  205aa4:	e4913004 	ldr	r3, [r1], #4
  205aa8:	e18cc002 	orr	ip, ip, r2
  205aac:	e1833002 	orr	r3, r3, r2
  205ab0:	e52d4004 	push	{r4}		; (str r4, [sp, #-4]!)
  205ab4:	e3a04001 	mov	r4, #1
  205ab8:	e1844404 	orr	r4, r4, r4, lsl #8
  205abc:	e1844804 	orr	r4, r4, r4, lsl #16
  205ac0:	e04c2004 	sub	r2, ip, r4
  205ac4:	e15c0003 	cmp	ip, r3
  205ac8:	01c2200c 	biceq	r2, r2, ip
  205acc:	01120384 	tsteq	r2, r4, lsl #7
  205ad0:	0490c004 	ldreq	ip, [r0], #4
  205ad4:	04913004 	ldreq	r3, [r1], #4
  205ad8:	0afffff8 	beq	205ac0 <strcmp+0x50>
  205adc:	e1a00c0c 	lsl	r0, ip, #24
  205ae0:	e1a0c42c 	lsr	ip, ip, #8
  205ae4:	e3500001 	cmp	r0, #1
  205ae8:	21500c03 	cmpcs	r0, r3, lsl #24
  205aec:	01a03423 	lsreq	r3, r3, #8
  205af0:	0afffff9 	beq	205adc <strcmp+0x6c>
  205af4:	e20330ff 	and	r3, r3, #255	; 0xff
  205af8:	e0630c20 	rsb	r0, r3, r0, lsr #24
  205afc:	e49d4004 	pop	{r4}		; (ldr r4, [sp], #4)
  205b00:	e12fff1e 	bx	lr

00205b04 <strcmp_unaligned>:
  205b04:	e3100003 	tst	r0, #3
  205b08:	0a000006 	beq	205b28 <strcmp_unaligned+0x24>
  205b0c:	e4d02001 	ldrb	r2, [r0], #1
  205b10:	e4d13001 	ldrb	r3, [r1], #1
  205b14:	e3520001 	cmp	r2, #1
  205b18:	21520003 	cmpcs	r2, r3
  205b1c:	0afffff8 	beq	205b04 <strcmp_unaligned>
  205b20:	e0420003 	sub	r0, r2, r3
  205b24:	e12fff1e 	bx	lr
  205b28:	e52d5004 	push	{r5}		; (str r5, [sp, #-4]!)
  205b2c:	e52d4004 	push	{r4}		; (str r4, [sp, #-4]!)
  205b30:	e3a02001 	mov	r2, #1
  205b34:	e1822402 	orr	r2, r2, r2, lsl #8
  205b38:	e1822802 	orr	r2, r2, r2, lsl #16
  205b3c:	e201c003 	and	ip, r1, #3
  205b40:	e3c11003 	bic	r1, r1, #3
  205b44:	e4904004 	ldr	r4, [r0], #4
  205b48:	e4915004 	ldr	r5, [r1], #4
  205b4c:	e35c0002 	cmp	ip, #2
  205b50:	0a000017 	beq	205bb4 <strcmp_unaligned+0xb0>
  205b54:	8a00002d 	bhi	205c10 <strcmp_unaligned+0x10c>
  205b58:	e3c4c4ff 	bic	ip, r4, #-16777216	; 0xff000000
  205b5c:	e15c0425 	cmp	ip, r5, lsr #8
  205b60:	e0443002 	sub	r3, r4, r2
  205b64:	e1c33004 	bic	r3, r3, r4
  205b68:	1a000007 	bne	205b8c <strcmp_unaligned+0x88>
  205b6c:	e0133382 	ands	r3, r3, r2, lsl #7
  205b70:	04915004 	ldreq	r5, [r1], #4
  205b74:	1a000006 	bne	205b94 <strcmp_unaligned+0x90>
  205b78:	e02cc004 	eor	ip, ip, r4
  205b7c:	e15c0c05 	cmp	ip, r5, lsl #24
  205b80:	1a000008 	bne	205ba8 <strcmp_unaligned+0xa4>
  205b84:	e4904004 	ldr	r4, [r0], #4
  205b88:	eafffff2 	b	205b58 <strcmp_unaligned+0x54>
  205b8c:	e1a05425 	lsr	r5, r5, #8
  205b90:	ea000037 	b	205c74 <strcmp_unaligned+0x170>
  205b94:	e3d334ff 	bics	r3, r3, #-16777216	; 0xff000000
  205b98:	1a000031 	bne	205c64 <strcmp_unaligned+0x160>
  205b9c:	e5d15000 	ldrb	r5, [r1]
  205ba0:	e1a0cc24 	lsr	ip, r4, #24
  205ba4:	ea000032 	b	205c74 <strcmp_unaligned+0x170>
  205ba8:	e1a0cc24 	lsr	ip, r4, #24
  205bac:	e20550ff 	and	r5, r5, #255	; 0xff
  205bb0:	ea00002f 	b	205c74 <strcmp_unaligned+0x170>
  205bb4:	e1a0c804 	lsl	ip, r4, #16
  205bb8:	e0443002 	sub	r3, r4, r2
  205bbc:	e1a0c82c 	lsr	ip, ip, #16
  205bc0:	e1c33004 	bic	r3, r3, r4
  205bc4:	e15c0825 	cmp	ip, r5, lsr #16
  205bc8:	1a00000e 	bne	205c08 <strcmp_unaligned+0x104>
  205bcc:	e0133382 	ands	r3, r3, r2, lsl #7
  205bd0:	04915004 	ldreq	r5, [r1], #4
  205bd4:	1a000004 	bne	205bec <strcmp_unaligned+0xe8>
  205bd8:	e02cc004 	eor	ip, ip, r4
  205bdc:	e15c0805 	cmp	ip, r5, lsl #16
  205be0:	1a000006 	bne	205c00 <strcmp_unaligned+0xfc>
  205be4:	e4904004 	ldr	r4, [r0], #4
  205be8:	eafffff1 	b	205bb4 <strcmp_unaligned+0xb0>
  205bec:	e1b03803 	lsls	r3, r3, #16
  205bf0:	1a00001b 	bne	205c64 <strcmp_unaligned+0x160>
  205bf4:	e1d150b0 	ldrh	r5, [r1]
  205bf8:	e1a0c824 	lsr	ip, r4, #16
  205bfc:	ea00001c 	b	205c74 <strcmp_unaligned+0x170>
  205c00:	e1a05805 	lsl	r5, r5, #16
  205c04:	e1a0c824 	lsr	ip, r4, #16
  205c08:	e1a05825 	lsr	r5, r5, #16
  205c0c:	ea000018 	b	205c74 <strcmp_unaligned+0x170>
  205c10:	e204c0ff 	and	ip, r4, #255	; 0xff
  205c14:	e15c0c25 	cmp	ip, r5, lsr #24
  205c18:	e0443002 	sub	r3, r4, r2
  205c1c:	e1c33004 	bic	r3, r3, r4
  205c20:	1a000007 	bne	205c44 <strcmp_unaligned+0x140>
  205c24:	e0133382 	ands	r3, r3, r2, lsl #7
  205c28:	04915004 	ldreq	r5, [r1], #4
  205c2c:	1a000006 	bne	205c4c <strcmp_unaligned+0x148>
  205c30:	e02cc004 	eor	ip, ip, r4
  205c34:	e15c0405 	cmp	ip, r5, lsl #8
  205c38:	1a000006 	bne	205c58 <strcmp_unaligned+0x154>
  205c3c:	e4904004 	ldr	r4, [r0], #4
  205c40:	eafffff2 	b	205c10 <strcmp_unaligned+0x10c>
  205c44:	e1a05c25 	lsr	r5, r5, #24
  205c48:	ea000009 	b	205c74 <strcmp_unaligned+0x170>
  205c4c:	e31400ff 	tst	r4, #255	; 0xff
  205c50:	0a000003 	beq	205c64 <strcmp_unaligned+0x160>
  205c54:	e4915004 	ldr	r5, [r1], #4
  205c58:	e1a0c424 	lsr	ip, r4, #8
  205c5c:	e3c554ff 	bic	r5, r5, #-16777216	; 0xff000000
  205c60:	ea000003 	b	205c74 <strcmp_unaligned+0x170>
  205c64:	e3a00000 	mov	r0, #0
  205c68:	e49d4004 	pop	{r4}		; (ldr r4, [sp], #4)
  205c6c:	e49d5004 	pop	{r5}		; (ldr r5, [sp], #4)
  205c70:	e12fff1e 	bx	lr
  205c74:	e20c20ff 	and	r2, ip, #255	; 0xff
  205c78:	e20500ff 	and	r0, r5, #255	; 0xff
  205c7c:	e3500001 	cmp	r0, #1
  205c80:	21500002 	cmpcs	r0, r2
  205c84:	01a0c42c 	lsreq	ip, ip, #8
  205c88:	01a05425 	lsreq	r5, r5, #8
  205c8c:	0afffff8 	beq	205c74 <strcmp_unaligned+0x170>
  205c90:	e0420000 	sub	r0, r2, r0
  205c94:	e49d4004 	pop	{r4}		; (ldr r4, [sp], #4)
  205c98:	e49d5004 	pop	{r5}		; (ldr r5, [sp], #4)
  205c9c:	e12fff1e 	bx	lr

00205ca0 <strlen>:
  205ca0:	e3c01003 	bic	r1, r0, #3
  205ca4:	e2100003 	ands	r0, r0, #3
  205ca8:	e2600000 	rsb	r0, r0, #0
  205cac:	e4913004 	ldr	r3, [r1], #4
  205cb0:	e280c004 	add	ip, r0, #4
  205cb4:	e1a0c18c 	lsl	ip, ip, #3
  205cb8:	e3e02000 	mvn	r2, #0
  205cbc:	11833c32 	orrne	r3, r3, r2, lsr ip
  205cc0:	e3a0c001 	mov	ip, #1
  205cc4:	e18cc40c 	orr	ip, ip, ip, lsl #8
  205cc8:	e18cc80c 	orr	ip, ip, ip, lsl #16
  205ccc:	e043200c 	sub	r2, r3, ip
  205cd0:	e1c22003 	bic	r2, r2, r3
  205cd4:	e012238c 	ands	r2, r2, ip, lsl #7
  205cd8:	04913004 	ldreq	r3, [r1], #4
  205cdc:	02800004 	addeq	r0, r0, #4
  205ce0:	0afffff9 	beq	205ccc <strlen+0x2c>
  205ce4:	e31300ff 	tst	r3, #255	; 0xff
  205ce8:	12800001 	addne	r0, r0, #1
  205cec:	13130cff 	tstne	r3, #65280	; 0xff00
  205cf0:	12800001 	addne	r0, r0, #1
  205cf4:	131308ff 	tstne	r3, #16711680	; 0xff0000
  205cf8:	12800001 	addne	r0, r0, #1
  205cfc:	e12fff1e 	bx	lr

00205d00 <__ssprint_r>:
  205d00:	e92d4ff0 	push	{r4, r5, r6, r7, r8, r9, sl, fp, lr}
  205d04:	e5924008 	ldr	r4, [r2, #8]
  205d08:	e3540000 	cmp	r4, #0
  205d0c:	e24dd00c 	sub	sp, sp, #12
  205d10:	e1a0a002 	mov	sl, r2
  205d14:	e1a08000 	mov	r8, r0
  205d18:	e1a05001 	mov	r5, r1
  205d1c:	e5926000 	ldr	r6, [r2]
  205d20:	0a00005c 	beq	205e98 <__ssprint_r+0x198>
  205d24:	e3a0b000 	mov	fp, #0
  205d28:	e1a0400b 	mov	r4, fp
  205d2c:	e3540000 	cmp	r4, #0
  205d30:	e5910000 	ldr	r0, [r1]
  205d34:	e5913008 	ldr	r3, [r1, #8]
  205d38:	0a000037 	beq	205e1c <__ssprint_r+0x11c>
  205d3c:	e1540003 	cmp	r4, r3
  205d40:	e1a07003 	mov	r7, r3
  205d44:	3a00003c 	bcc	205e3c <__ssprint_r+0x13c>
  205d48:	e1d530bc 	ldrh	r3, [r5, #12]
  205d4c:	e3130d12 	tst	r3, #1152	; 0x480
  205d50:	01a09007 	moveq	r9, r7
  205d54:	0a000022 	beq	205de4 <__ssprint_r+0xe4>
  205d58:	e2851010 	add	r1, r5, #16
  205d5c:	e8910082 	ldm	r1, {r1, r7}
  205d60:	e0877087 	add	r7, r7, r7, lsl #1
  205d64:	e0877fa7 	add	r7, r7, r7, lsr #31
  205d68:	e0619000 	rsb	r9, r1, r0
  205d6c:	e2842001 	add	r2, r4, #1
  205d70:	e1a070c7 	asr	r7, r7, #1
  205d74:	e0822009 	add	r2, r2, r9
  205d78:	e1570002 	cmp	r7, r2
  205d7c:	31a07002 	movcc	r7, r2
  205d80:	21a02007 	movcs	r2, r7
  205d84:	e3130b01 	tst	r3, #1024	; 0x400
  205d88:	0a00002e 	beq	205e48 <__ssprint_r+0x148>
  205d8c:	e1a01002 	mov	r1, r2
  205d90:	e1a00008 	mov	r0, r8
  205d94:	ebfff96f 	bl	204358 <_malloc_r>
  205d98:	e2503000 	subs	r3, r0, #0
  205d9c:	0a000030 	beq	205e64 <__ssprint_r+0x164>
  205da0:	e5951010 	ldr	r1, [r5, #16]
  205da4:	e1a02009 	mov	r2, r9
  205da8:	e58d3004 	str	r3, [sp, #4]
  205dac:	ebfffb79 	bl	204b98 <memcpy>
  205db0:	e1d520bc 	ldrh	r2, [r5, #12]
  205db4:	e3c22d12 	bic	r2, r2, #1152	; 0x480
  205db8:	e3822080 	orr	r2, r2, #128	; 0x80
  205dbc:	e1c520bc 	strh	r2, [r5, #12]
  205dc0:	e59d3004 	ldr	r3, [sp, #4]
  205dc4:	e0830009 	add	r0, r3, r9
  205dc8:	e5853010 	str	r3, [r5, #16]
  205dcc:	e0699007 	rsb	r9, r9, r7
  205dd0:	e5850000 	str	r0, [r5]
  205dd4:	e5859008 	str	r9, [r5, #8]
  205dd8:	e5857014 	str	r7, [r5, #20]
  205ddc:	e1a09004 	mov	r9, r4
  205de0:	e1a07004 	mov	r7, r4
  205de4:	e1a02009 	mov	r2, r9
  205de8:	e1a0100b 	mov	r1, fp
  205dec:	eb000524 	bl	207284 <memmove>
  205df0:	e59a2008 	ldr	r2, [sl, #8]
  205df4:	e5953008 	ldr	r3, [r5, #8]
  205df8:	e5950000 	ldr	r0, [r5]
  205dfc:	e0644002 	rsb	r4, r4, r2
  205e00:	e0673003 	rsb	r3, r7, r3
  205e04:	e0800009 	add	r0, r0, r9
  205e08:	e3540000 	cmp	r4, #0
  205e0c:	e5853008 	str	r3, [r5, #8]
  205e10:	e5850000 	str	r0, [r5]
  205e14:	e58a4008 	str	r4, [sl, #8]
  205e18:	0a00001e 	beq	205e98 <__ssprint_r+0x198>
  205e1c:	e5964004 	ldr	r4, [r6, #4]
  205e20:	e3540000 	cmp	r4, #0
  205e24:	e596b000 	ldr	fp, [r6]
  205e28:	e2866008 	add	r6, r6, #8
  205e2c:	0afffffa 	beq	205e1c <__ssprint_r+0x11c>
  205e30:	e1540003 	cmp	r4, r3
  205e34:	e1a07003 	mov	r7, r3
  205e38:	2affffc2 	bcs	205d48 <__ssprint_r+0x48>
  205e3c:	e1a07004 	mov	r7, r4
  205e40:	e1a09004 	mov	r9, r4
  205e44:	eaffffe6 	b	205de4 <__ssprint_r+0xe4>
  205e48:	e1a00008 	mov	r0, r8
  205e4c:	eb000559 	bl	2073b8 <_realloc_r>
  205e50:	e2503000 	subs	r3, r0, #0
  205e54:	1affffda 	bne	205dc4 <__ssprint_r+0xc4>
  205e58:	e1a00008 	mov	r0, r8
  205e5c:	e5951010 	ldr	r1, [r5, #16]
  205e60:	eb00046c 	bl	207018 <_free_r>
  205e64:	e1d520bc 	ldrh	r2, [r5, #12]
  205e68:	e3a0300c 	mov	r3, #12
  205e6c:	e3e04000 	mvn	r4, #0
  205e70:	e5883000 	str	r3, [r8]
  205e74:	e3822040 	orr	r2, r2, #64	; 0x40
  205e78:	e3a03000 	mov	r3, #0
  205e7c:	e1a00004 	mov	r0, r4
  205e80:	e1c520bc 	strh	r2, [r5, #12]
  205e84:	e58a3008 	str	r3, [sl, #8]
  205e88:	e58a3004 	str	r3, [sl, #4]
  205e8c:	e28dd00c 	add	sp, sp, #12
  205e90:	e8bd4ff0 	pop	{r4, r5, r6, r7, r8, r9, sl, fp, lr}
  205e94:	e12fff1e 	bx	lr
  205e98:	e1a00004 	mov	r0, r4
  205e9c:	e58a4004 	str	r4, [sl, #4]
  205ea0:	e28dd00c 	add	sp, sp, #12
  205ea4:	e8bd4ff0 	pop	{r4, r5, r6, r7, r8, r9, sl, fp, lr}
  205ea8:	e12fff1e 	bx	lr

00205eac <_svfiprintf_r>:
  205eac:	e92d4ff0 	push	{r4, r5, r6, r7, r8, r9, sl, fp, lr}
  205eb0:	e1a0a001 	mov	sl, r1
  205eb4:	e1d110bc 	ldrh	r1, [r1, #12]
  205eb8:	e24dd0c4 	sub	sp, sp, #196	; 0xc4
  205ebc:	e3110080 	tst	r1, #128	; 0x80
  205ec0:	e58d200c 	str	r2, [sp, #12]
  205ec4:	e58d3020 	str	r3, [sp, #32]
  205ec8:	e58d0028 	str	r0, [sp, #40]	; 0x28
  205ecc:	0a000002 	beq	205edc <_svfiprintf_r+0x30>
  205ed0:	e59a3010 	ldr	r3, [sl, #16]
  205ed4:	e3530000 	cmp	r3, #0
  205ed8:	0a000362 	beq	206c68 <_svfiprintf_r+0xdbc>
  205edc:	e3a03000 	mov	r3, #0
  205ee0:	e28d9080 	add	r9, sp, #128	; 0x80
  205ee4:	e58d3054 	str	r3, [sp, #84]	; 0x54
  205ee8:	e58d3050 	str	r3, [sp, #80]	; 0x50
  205eec:	e58d3034 	str	r3, [sp, #52]	; 0x34
  205ef0:	e28d307f 	add	r3, sp, #127	; 0x7f
  205ef4:	e59f6e08 	ldr	r6, [pc, #3592]	; 206d04 <_svfiprintf_r+0xe58>
  205ef8:	e58d3004 	str	r3, [sp, #4]
  205efc:	e3a04000 	mov	r4, #0
  205f00:	e0633009 	rsb	r3, r3, r9
  205f04:	e58d904c 	str	r9, [sp, #76]	; 0x4c
  205f08:	e58d4024 	str	r4, [sp, #36]	; 0x24
  205f0c:	e58d303c 	str	r3, [sp, #60]	; 0x3c
  205f10:	e1a0c009 	mov	ip, r9
  205f14:	e2868010 	add	r8, r6, #16
  205f18:	e59d400c 	ldr	r4, [sp, #12]
  205f1c:	e5d43000 	ldrb	r3, [r4]
  205f20:	e3530000 	cmp	r3, #0
  205f24:	13530025 	cmpne	r3, #37	; 0x25
  205f28:	0a000316 	beq	206b88 <_svfiprintf_r+0xcdc>
  205f2c:	e2843001 	add	r3, r4, #1
  205f30:	e1a04003 	mov	r4, r3
  205f34:	e5d33000 	ldrb	r3, [r3]
  205f38:	e3530025 	cmp	r3, #37	; 0x25
  205f3c:	13530000 	cmpne	r3, #0
  205f40:	e2843001 	add	r3, r4, #1
  205f44:	1afffff9 	bne	205f30 <_svfiprintf_r+0x84>
  205f48:	e59d000c 	ldr	r0, [sp, #12]
  205f4c:	e0545000 	subs	r5, r4, r0
  205f50:	0a00000c 	beq	205f88 <_svfiprintf_r+0xdc>
  205f54:	e59d3050 	ldr	r3, [sp, #80]	; 0x50
  205f58:	e59d2054 	ldr	r2, [sp, #84]	; 0x54
  205f5c:	e2833001 	add	r3, r3, #1
  205f60:	e3530007 	cmp	r3, #7
  205f64:	e0822005 	add	r2, r2, r5
  205f68:	e88c0021 	stm	ip, {r0, r5}
  205f6c:	e58d3050 	str	r3, [sp, #80]	; 0x50
  205f70:	e58d2054 	str	r2, [sp, #84]	; 0x54
  205f74:	d28cc008 	addle	ip, ip, #8
  205f78:	ca0002e6 	bgt	206b18 <_svfiprintf_r+0xc6c>
  205f7c:	e59d3024 	ldr	r3, [sp, #36]	; 0x24
  205f80:	e0833005 	add	r3, r3, r5
  205f84:	e58d3024 	str	r3, [sp, #36]	; 0x24
  205f88:	e5d43000 	ldrb	r3, [r4]
  205f8c:	e3530000 	cmp	r3, #0
  205f90:	0a000283 	beq	2069a4 <_svfiprintf_r+0xaf8>
  205f94:	e3a03000 	mov	r3, #0
  205f98:	e1a01003 	mov	r1, r3
  205f9c:	e5cd3047 	strb	r3, [sp, #71]	; 0x47
  205fa0:	e58d3014 	str	r3, [sp, #20]
  205fa4:	e1a05003 	mov	r5, r3
  205fa8:	e3e03000 	mvn	r3, #0
  205fac:	e58d3008 	str	r3, [sp, #8]
  205fb0:	e2844001 	add	r4, r4, #1
  205fb4:	e1a00001 	mov	r0, r1
  205fb8:	e5d42000 	ldrb	r2, [r4]
  205fbc:	e2844001 	add	r4, r4, #1
  205fc0:	e2423020 	sub	r3, r2, #32
  205fc4:	e3530058 	cmp	r3, #88	; 0x58
  205fc8:	979ff103 	ldrls	pc, [pc, r3, lsl #2]
  205fcc:	ea0001b4 	b	2066a4 <_svfiprintf_r+0x7f8>
  205fd0:	00206524 	.word	0x00206524
  205fd4:	002066a4 	.word	0x002066a4
  205fd8:	002066a4 	.word	0x002066a4
  205fdc:	00206488 	.word	0x00206488
  205fe0:	002066a4 	.word	0x002066a4
  205fe4:	002066a4 	.word	0x002066a4
  205fe8:	002066a4 	.word	0x002066a4
  205fec:	002066a4 	.word	0x002066a4
  205ff0:	002066a4 	.word	0x002066a4
  205ff4:	002066a4 	.word	0x002066a4
  205ff8:	0020613c 	.word	0x0020613c
  205ffc:	00206160 	.word	0x00206160
  206000:	002066a4 	.word	0x002066a4
  206004:	00206158 	.word	0x00206158
  206008:	002064d8 	.word	0x002064d8
  20600c:	002066a4 	.word	0x002066a4
  206010:	002064d0 	.word	0x002064d0
  206014:	00206464 	.word	0x00206464
  206018:	00206464 	.word	0x00206464
  20601c:	00206464 	.word	0x00206464
  206020:	00206464 	.word	0x00206464
  206024:	00206464 	.word	0x00206464
  206028:	00206464 	.word	0x00206464
  20602c:	00206464 	.word	0x00206464
  206030:	00206464 	.word	0x00206464
  206034:	00206464 	.word	0x00206464
  206038:	002066a4 	.word	0x002066a4
  20603c:	002066a4 	.word	0x002066a4
  206040:	002066a4 	.word	0x002066a4
  206044:	002066a4 	.word	0x002066a4
  206048:	002066a4 	.word	0x002066a4
  20604c:	002066a4 	.word	0x002066a4
  206050:	002066a4 	.word	0x002066a4
  206054:	002066a4 	.word	0x002066a4
  206058:	002066a4 	.word	0x002066a4
  20605c:	002066a4 	.word	0x002066a4
  206060:	00206418 	.word	0x00206418
  206064:	002066a4 	.word	0x002066a4
  206068:	002066a4 	.word	0x002066a4
  20606c:	002066a4 	.word	0x002066a4
  206070:	002066a4 	.word	0x002066a4
  206074:	002066a4 	.word	0x002066a4
  206078:	002066a4 	.word	0x002066a4
  20607c:	002066a4 	.word	0x002066a4
  206080:	002066a4 	.word	0x002066a4
  206084:	002066a4 	.word	0x002066a4
  206088:	002066a4 	.word	0x002066a4
  20608c:	00206654 	.word	0x00206654
  206090:	002066a4 	.word	0x002066a4
  206094:	002066a4 	.word	0x002066a4
  206098:	002066a4 	.word	0x002066a4
  20609c:	002066a4 	.word	0x002066a4
  2060a0:	002066a4 	.word	0x002066a4
  2060a4:	00206628 	.word	0x00206628
  2060a8:	002066a4 	.word	0x002066a4
  2060ac:	002066a4 	.word	0x002066a4
  2060b0:	00206610 	.word	0x00206610
  2060b4:	002066a4 	.word	0x002066a4
  2060b8:	002066a4 	.word	0x002066a4
  2060bc:	002066a4 	.word	0x002066a4
  2060c0:	002066a4 	.word	0x002066a4
  2060c4:	002066a4 	.word	0x002066a4
  2060c8:	002066a4 	.word	0x002066a4
  2060cc:	002066a4 	.word	0x002066a4
  2060d0:	002066a4 	.word	0x002066a4
  2060d4:	002066a4 	.word	0x002066a4
  2060d8:	002066a4 	.word	0x002066a4
  2060dc:	002065c8 	.word	0x002065c8
  2060e0:	0020668c 	.word	0x0020668c
  2060e4:	002066a4 	.word	0x002066a4
  2060e8:	002066a4 	.word	0x002066a4
  2060ec:	002066a4 	.word	0x002066a4
  2060f0:	002065c0 	.word	0x002065c0
  2060f4:	0020668c 	.word	0x0020668c
  2060f8:	002066a4 	.word	0x002066a4
  2060fc:	002066a4 	.word	0x002066a4
  206100:	00206134 	.word	0x00206134
  206104:	002066a4 	.word	0x002066a4
  206108:	00206530 	.word	0x00206530
  20610c:	00206168 	.word	0x00206168
  206110:	00206490 	.word	0x00206490
  206114:	00206134 	.word	0x00206134
  206118:	002066a4 	.word	0x002066a4
  20611c:	002063a4 	.word	0x002063a4
  206120:	002066a4 	.word	0x002066a4
  206124:	00206374 	.word	0x00206374
  206128:	002066a4 	.word	0x002066a4
  20612c:	002066a4 	.word	0x002066a4
  206130:	00206564 	.word	0x00206564
  206134:	e3855010 	orr	r5, r5, #16
  206138:	eaffff9e 	b	205fb8 <_svfiprintf_r+0x10c>
  20613c:	e59d3020 	ldr	r3, [sp, #32]
  206140:	e5930000 	ldr	r0, [r3]
  206144:	e3500000 	cmp	r0, #0
  206148:	e2833004 	add	r3, r3, #4
  20614c:	aa00029e 	bge	206bcc <_svfiprintf_r+0xd20>
  206150:	e58d3020 	str	r3, [sp, #32]
  206154:	e2600000 	rsb	r0, r0, #0
  206158:	e3855004 	orr	r5, r5, #4
  20615c:	eaffff95 	b	205fb8 <_svfiprintf_r+0x10c>
  206160:	e3a0102b 	mov	r1, #43	; 0x2b
  206164:	eaffff93 	b	205fb8 <_svfiprintf_r+0x10c>
  206168:	e2153010 	ands	r3, r5, #16
  20616c:	e58d0014 	str	r0, [sp, #20]
  206170:	e58d400c 	str	r4, [sp, #12]
  206174:	0a00013b 	beq	206668 <_svfiprintf_r+0x7bc>
  206178:	e59d4020 	ldr	r4, [sp, #32]
  20617c:	e5943000 	ldr	r3, [r4]
  206180:	e2844004 	add	r4, r4, #4
  206184:	e58d4020 	str	r4, [sp, #32]
  206188:	e3a02000 	mov	r2, #0
  20618c:	e3a01000 	mov	r1, #0
  206190:	e5cd1047 	strb	r1, [sp, #71]	; 0x47
  206194:	e59d4008 	ldr	r4, [sp, #8]
  206198:	e3540000 	cmp	r4, #0
  20619c:	e59d4008 	ldr	r4, [sp, #8]
  2061a0:	a3c55080 	bicge	r5, r5, #128	; 0x80
  2061a4:	e3530000 	cmp	r3, #0
  2061a8:	03540000 	cmpeq	r4, #0
  2061ac:	03a00000 	moveq	r0, #0
  2061b0:	13a00001 	movne	r0, #1
  2061b4:	0a0001ed 	beq	206970 <_svfiprintf_r+0xac4>
  2061b8:	e3520001 	cmp	r2, #1
  2061bc:	0a000273 	beq	206b90 <_svfiprintf_r+0xce4>
  2061c0:	e3520002 	cmp	r2, #2
  2061c4:	e28d207f 	add	r2, sp, #127	; 0x7f
  2061c8:	1a000057 	bne	20632c <_svfiprintf_r+0x480>
  2061cc:	e59d7034 	ldr	r7, [sp, #52]	; 0x34
  2061d0:	e203000f 	and	r0, r3, #15
  2061d4:	e7d70000 	ldrb	r0, [r7, r0]
  2061d8:	e1b03223 	lsrs	r3, r3, #4
  2061dc:	e1a04002 	mov	r4, r2
  2061e0:	e5c20000 	strb	r0, [r2]
  2061e4:	e2422001 	sub	r2, r2, #1
  2061e8:	1afffff8 	bne	2061d0 <_svfiprintf_r+0x324>
  2061ec:	e0643009 	rsb	r3, r4, r9
  2061f0:	e58d3018 	str	r3, [sp, #24]
  2061f4:	e59d3018 	ldr	r3, [sp, #24]
  2061f8:	e59d0008 	ldr	r0, [sp, #8]
  2061fc:	e1530000 	cmp	r3, r0
  206200:	b1a03000 	movlt	r3, r0
  206204:	e3510000 	cmp	r1, #0
  206208:	e58d3010 	str	r3, [sp, #16]
  20620c:	12833001 	addne	r3, r3, #1
  206210:	158d3010 	strne	r3, [sp, #16]
  206214:	e2153002 	ands	r3, r5, #2
  206218:	e58d301c 	str	r3, [sp, #28]
  20621c:	159d3010 	ldrne	r3, [sp, #16]
  206220:	12833002 	addne	r3, r3, #2
  206224:	158d3010 	strne	r3, [sp, #16]
  206228:	e2153084 	ands	r3, r5, #132	; 0x84
  20622c:	e58d302c 	str	r3, [sp, #44]	; 0x2c
  206230:	1a000128 	bne	2066d8 <_svfiprintf_r+0x82c>
  206234:	e28d0010 	add	r0, sp, #16
  206238:	e8900009 	ldm	r0, {r0, r3}
  20623c:	e060b003 	rsb	fp, r0, r3
  206240:	e35b0000 	cmp	fp, #0
  206244:	da000123 	ble	2066d8 <_svfiprintf_r+0x82c>
  206248:	e59f3ab4 	ldr	r3, [pc, #2740]	; 206d04 <_svfiprintf_r+0xe58>
  20624c:	e28d1050 	add	r1, sp, #80	; 0x50
  206250:	e35b0010 	cmp	fp, #16
  206254:	e8910006 	ldm	r1, {r1, r2}
  206258:	e58d3030 	str	r3, [sp, #48]	; 0x30
  20625c:	da00001f 	ble	2062e0 <_svfiprintf_r+0x434>
  206260:	e58d5038 	str	r5, [sp, #56]	; 0x38
  206264:	e3a07010 	mov	r7, #16
  206268:	e1a0500b 	mov	r5, fp
  20626c:	e1a0b004 	mov	fp, r4
  206270:	e59d4028 	ldr	r4, [sp, #40]	; 0x28
  206274:	ea000002 	b	206284 <_svfiprintf_r+0x3d8>
  206278:	e2455010 	sub	r5, r5, #16
  20627c:	e3550010 	cmp	r5, #16
  206280:	da000013 	ble	2062d4 <_svfiprintf_r+0x428>
  206284:	e2811001 	add	r1, r1, #1
  206288:	e3510007 	cmp	r1, #7
  20628c:	e2822010 	add	r2, r2, #16
  206290:	e88c00c0 	stm	ip, {r6, r7}
  206294:	e58d1050 	str	r1, [sp, #80]	; 0x50
  206298:	e58d2054 	str	r2, [sp, #84]	; 0x54
  20629c:	d28cc008 	addle	ip, ip, #8
  2062a0:	dafffff4 	ble	206278 <_svfiprintf_r+0x3cc>
  2062a4:	e1a00004 	mov	r0, r4
  2062a8:	e1a0100a 	mov	r1, sl
  2062ac:	e28d204c 	add	r2, sp, #76	; 0x4c
  2062b0:	ebfffe92 	bl	205d00 <__ssprint_r>
  2062b4:	e3500000 	cmp	r0, #0
  2062b8:	1a0001bf 	bne	2069bc <_svfiprintf_r+0xb10>
  2062bc:	e2455010 	sub	r5, r5, #16
  2062c0:	e28d1050 	add	r1, sp, #80	; 0x50
  2062c4:	e3550010 	cmp	r5, #16
  2062c8:	e8910006 	ldm	r1, {r1, r2}
  2062cc:	e1a0c009 	mov	ip, r9
  2062d0:	caffffeb 	bgt	206284 <_svfiprintf_r+0x3d8>
  2062d4:	e1a0400b 	mov	r4, fp
  2062d8:	e1a0b005 	mov	fp, r5
  2062dc:	e59d5038 	ldr	r5, [sp, #56]	; 0x38
  2062e0:	e2813001 	add	r3, r1, #1
  2062e4:	e59d0030 	ldr	r0, [sp, #48]	; 0x30
  2062e8:	e3530007 	cmp	r3, #7
  2062ec:	e08b2002 	add	r2, fp, r2
  2062f0:	e88c0801 	stm	ip, {r0, fp}
  2062f4:	e58d3050 	str	r3, [sp, #80]	; 0x50
  2062f8:	e58d2054 	str	r2, [sp, #84]	; 0x54
  2062fc:	d28cc008 	addle	ip, ip, #8
  206300:	da0000f6 	ble	2066e0 <_svfiprintf_r+0x834>
  206304:	e59d0028 	ldr	r0, [sp, #40]	; 0x28
  206308:	e1a0100a 	mov	r1, sl
  20630c:	e28d204c 	add	r2, sp, #76	; 0x4c
  206310:	ebfffe7a 	bl	205d00 <__ssprint_r>
  206314:	e3500000 	cmp	r0, #0
  206318:	1a0001a7 	bne	2069bc <_svfiprintf_r+0xb10>
  20631c:	e59d2054 	ldr	r2, [sp, #84]	; 0x54
  206320:	e59d3050 	ldr	r3, [sp, #80]	; 0x50
  206324:	e1a0c009 	mov	ip, r9
  206328:	ea0000ec 	b	2066e0 <_svfiprintf_r+0x834>
  20632c:	e2030007 	and	r0, r3, #7
  206330:	e2800030 	add	r0, r0, #48	; 0x30
  206334:	e1b031a3 	lsrs	r3, r3, #3
  206338:	e1a04002 	mov	r4, r2
  20633c:	e5c20000 	strb	r0, [r2]
  206340:	e2422001 	sub	r2, r2, #1
  206344:	1afffff8 	bne	20632c <_svfiprintf_r+0x480>
  206348:	e3150001 	tst	r5, #1
  20634c:	e1a03004 	mov	r3, r4
  206350:	0affffa5 	beq	2061ec <_svfiprintf_r+0x340>
  206354:	e3500030 	cmp	r0, #48	; 0x30
  206358:	0affffa3 	beq	2061ec <_svfiprintf_r+0x340>
  20635c:	e1a04002 	mov	r4, r2
  206360:	e0640009 	rsb	r0, r4, r9
  206364:	e3a02030 	mov	r2, #48	; 0x30
  206368:	e58d0018 	str	r0, [sp, #24]
  20636c:	e5432001 	strb	r2, [r3, #-1]
  206370:	eaffff9f 	b	2061f4 <_svfiprintf_r+0x348>
  206374:	e3150010 	tst	r5, #16
  206378:	e58d400c 	str	r4, [sp, #12]
  20637c:	e58d0014 	str	r0, [sp, #20]
  206380:	e59d4020 	ldr	r4, [sp, #32]
  206384:	1a0000ad 	bne	206640 <_svfiprintf_r+0x794>
  206388:	e3150040 	tst	r5, #64	; 0x40
  20638c:	0a0000ab 	beq	206640 <_svfiprintf_r+0x794>
  206390:	e1d430b0 	ldrh	r3, [r4]
  206394:	e2844004 	add	r4, r4, #4
  206398:	e3a02001 	mov	r2, #1
  20639c:	e58d4020 	str	r4, [sp, #32]
  2063a0:	eaffff79 	b	20618c <_svfiprintf_r+0x2e0>
  2063a4:	e59d3020 	ldr	r3, [sp, #32]
  2063a8:	e58d400c 	str	r4, [sp, #12]
  2063ac:	e5934000 	ldr	r4, [r3]
  2063b0:	e3a0b000 	mov	fp, #0
  2063b4:	e154000b 	cmp	r4, fp
  2063b8:	e58d0014 	str	r0, [sp, #20]
  2063bc:	e2837004 	add	r7, r3, #4
  2063c0:	e5cdb047 	strb	fp, [sp, #71]	; 0x47
  2063c4:	0a000234 	beq	206c9c <_svfiprintf_r+0xdf0>
  2063c8:	e59d3008 	ldr	r3, [sp, #8]
  2063cc:	e3530000 	cmp	r3, #0
  2063d0:	e1a00004 	mov	r0, r4
  2063d4:	ba00021b 	blt	206c48 <_svfiprintf_r+0xd9c>
  2063d8:	e1a0100b 	mov	r1, fp
  2063dc:	e1a02003 	mov	r2, r3
  2063e0:	e58dc000 	str	ip, [sp]
  2063e4:	ebfff9a6 	bl	204a84 <memchr>
  2063e8:	e3500000 	cmp	r0, #0
  2063ec:	e59dc000 	ldr	ip, [sp]
  2063f0:	0a000232 	beq	206cc0 <_svfiprintf_r+0xe14>
  2063f4:	e59d3008 	ldr	r3, [sp, #8]
  2063f8:	e0640000 	rsb	r0, r4, r0
  2063fc:	e1530000 	cmp	r3, r0
  206400:	a1a03000 	movge	r3, r0
  206404:	e58d3018 	str	r3, [sp, #24]
  206408:	e58d7020 	str	r7, [sp, #32]
  20640c:	e58db008 	str	fp, [sp, #8]
  206410:	e5dd1047 	ldrb	r1, [sp, #71]	; 0x47
  206414:	eaffff76 	b	2061f4 <_svfiprintf_r+0x348>
  206418:	e58d0014 	str	r0, [sp, #20]
  20641c:	e58d400c 	str	r4, [sp, #12]
  206420:	e5cd1047 	strb	r1, [sp, #71]	; 0x47
  206424:	e3855010 	orr	r5, r5, #16
  206428:	e3150010 	tst	r5, #16
  20642c:	e59d4020 	ldr	r4, [sp, #32]
  206430:	1a000001 	bne	20643c <_svfiprintf_r+0x590>
  206434:	e3150040 	tst	r5, #64	; 0x40
  206438:	1a0001fa 	bne	206c28 <_svfiprintf_r+0xd7c>
  20643c:	e5943000 	ldr	r3, [r4]
  206440:	e2844004 	add	r4, r4, #4
  206444:	e58d4020 	str	r4, [sp, #32]
  206448:	e3530000 	cmp	r3, #0
  20644c:	b3a0102d 	movlt	r1, #45	; 0x2d
  206450:	a5dd1047 	ldrbge	r1, [sp, #71]	; 0x47
  206454:	b2633000 	rsblt	r3, r3, #0
  206458:	b5cd1047 	strblt	r1, [sp, #71]	; 0x47
  20645c:	e3a02001 	mov	r2, #1
  206460:	eaffff4b 	b	206194 <_svfiprintf_r+0x2e8>
  206464:	e2423030 	sub	r3, r2, #48	; 0x30
  206468:	e3a00000 	mov	r0, #0
  20646c:	e4d42001 	ldrb	r2, [r4], #1
  206470:	e0800100 	add	r0, r0, r0, lsl #2
  206474:	e0830080 	add	r0, r3, r0, lsl #1
  206478:	e2423030 	sub	r3, r2, #48	; 0x30
  20647c:	e3530009 	cmp	r3, #9
  206480:	9afffff9 	bls	20646c <_svfiprintf_r+0x5c0>
  206484:	eafffecd 	b	205fc0 <_svfiprintf_r+0x114>
  206488:	e3855001 	orr	r5, r5, #1
  20648c:	eafffec9 	b	205fb8 <_svfiprintf_r+0x10c>
  206490:	e58d400c 	str	r4, [sp, #12]
  206494:	e59d4020 	ldr	r4, [sp, #32]
  206498:	e2844004 	add	r4, r4, #4
  20649c:	e59d3020 	ldr	r3, [sp, #32]
  2064a0:	e58d4020 	str	r4, [sp, #32]
  2064a4:	e59f485c 	ldr	r4, [pc, #2140]	; 206d08 <_svfiprintf_r+0xe5c>
  2064a8:	e3a02078 	mov	r2, #120	; 0x78
  2064ac:	e3a01030 	mov	r1, #48	; 0x30
  2064b0:	e5cd2049 	strb	r2, [sp, #73]	; 0x49
  2064b4:	e58d0014 	str	r0, [sp, #20]
  2064b8:	e3855002 	orr	r5, r5, #2
  2064bc:	e5933000 	ldr	r3, [r3]
  2064c0:	e5cd1048 	strb	r1, [sp, #72]	; 0x48
  2064c4:	e58d4034 	str	r4, [sp, #52]	; 0x34
  2064c8:	e3a02002 	mov	r2, #2
  2064cc:	eaffff2e 	b	20618c <_svfiprintf_r+0x2e0>
  2064d0:	e3855080 	orr	r5, r5, #128	; 0x80
  2064d4:	eafffeb7 	b	205fb8 <_svfiprintf_r+0x10c>
  2064d8:	e5d42000 	ldrb	r2, [r4]
  2064dc:	e352002a 	cmp	r2, #42	; 0x2a
  2064e0:	e2844001 	add	r4, r4, #1
  2064e4:	0a0001fb 	beq	206cd8 <_svfiprintf_r+0xe2c>
  2064e8:	e2423030 	sub	r3, r2, #48	; 0x30
  2064ec:	e3530009 	cmp	r3, #9
  2064f0:	83a03000 	movhi	r3, #0
  2064f4:	858d3008 	strhi	r3, [sp, #8]
  2064f8:	8afffeb0 	bhi	205fc0 <_svfiprintf_r+0x114>
  2064fc:	e3a07000 	mov	r7, #0
  206500:	e4d42001 	ldrb	r2, [r4], #1
  206504:	e0877107 	add	r7, r7, r7, lsl #2
  206508:	e0837087 	add	r7, r3, r7, lsl #1
  20650c:	e2423030 	sub	r3, r2, #48	; 0x30
  206510:	e3530009 	cmp	r3, #9
  206514:	9afffff9 	bls	206500 <_svfiprintf_r+0x654>
  206518:	e1877fc7 	orr	r7, r7, r7, asr #31
  20651c:	e58d7008 	str	r7, [sp, #8]
  206520:	eafffea6 	b	205fc0 <_svfiprintf_r+0x114>
  206524:	e3510000 	cmp	r1, #0
  206528:	03a01020 	moveq	r1, #32
  20652c:	eafffea1 	b	205fb8 <_svfiprintf_r+0x10c>
  206530:	e3150010 	tst	r5, #16
  206534:	e58d400c 	str	r4, [sp, #12]
  206538:	e5cd1047 	strb	r1, [sp, #71]	; 0x47
  20653c:	1a0001b2 	bne	206c0c <_svfiprintf_r+0xd60>
  206540:	e3150040 	tst	r5, #64	; 0x40
  206544:	0a0001b0 	beq	206c0c <_svfiprintf_r+0xd60>
  206548:	e59d4020 	ldr	r4, [sp, #32]
  20654c:	e5943000 	ldr	r3, [r4]
  206550:	e2844004 	add	r4, r4, #4
  206554:	e58d4020 	str	r4, [sp, #32]
  206558:	e59d4024 	ldr	r4, [sp, #36]	; 0x24
  20655c:	e1c340b0 	strh	r4, [r3]
  206560:	eafffe6c 	b	205f18 <_svfiprintf_r+0x6c>
  206564:	e59f379c 	ldr	r3, [pc, #1948]	; 206d08 <_svfiprintf_r+0xe5c>
  206568:	e58d0014 	str	r0, [sp, #20]
  20656c:	e58d400c 	str	r4, [sp, #12]
  206570:	e5cd1047 	strb	r1, [sp, #71]	; 0x47
  206574:	e58d3034 	str	r3, [sp, #52]	; 0x34
  206578:	e3150010 	tst	r5, #16
  20657c:	e59d4020 	ldr	r4, [sp, #32]
  206580:	1a000001 	bne	20658c <_svfiprintf_r+0x6e0>
  206584:	e3150040 	tst	r5, #64	; 0x40
  206588:	1a0001aa 	bne	206c38 <_svfiprintf_r+0xd8c>
  20658c:	e5943000 	ldr	r3, [r4]
  206590:	e2844004 	add	r4, r4, #4
  206594:	e58d4020 	str	r4, [sp, #32]
  206598:	e3150001 	tst	r5, #1
  20659c:	0a00003e 	beq	20669c <_svfiprintf_r+0x7f0>
  2065a0:	e3530000 	cmp	r3, #0
  2065a4:	0a00003c 	beq	20669c <_svfiprintf_r+0x7f0>
  2065a8:	e3a01030 	mov	r1, #48	; 0x30
  2065ac:	e5cd2049 	strb	r2, [sp, #73]	; 0x49
  2065b0:	e3855002 	orr	r5, r5, #2
  2065b4:	e5cd1048 	strb	r1, [sp, #72]	; 0x48
  2065b8:	e3a02002 	mov	r2, #2
  2065bc:	eafffef2 	b	20618c <_svfiprintf_r+0x2e0>
  2065c0:	e3855040 	orr	r5, r5, #64	; 0x40
  2065c4:	eafffe7b 	b	205fb8 <_svfiprintf_r+0x10c>
  2065c8:	e59d3020 	ldr	r3, [sp, #32]
  2065cc:	e58d400c 	str	r4, [sp, #12]
  2065d0:	e3a04001 	mov	r4, #1
  2065d4:	e5932000 	ldr	r2, [r3]
  2065d8:	e58d4010 	str	r4, [sp, #16]
  2065dc:	e3a03000 	mov	r3, #0
  2065e0:	e59d4020 	ldr	r4, [sp, #32]
  2065e4:	e5cd3047 	strb	r3, [sp, #71]	; 0x47
  2065e8:	e3a03001 	mov	r3, #1
  2065ec:	e2844004 	add	r4, r4, #4
  2065f0:	e58d0014 	str	r0, [sp, #20]
  2065f4:	e5cd2058 	strb	r2, [sp, #88]	; 0x58
  2065f8:	e58d3018 	str	r3, [sp, #24]
  2065fc:	e58d4020 	str	r4, [sp, #32]
  206600:	e28d4058 	add	r4, sp, #88	; 0x58
  206604:	e3a03000 	mov	r3, #0
  206608:	e58d3008 	str	r3, [sp, #8]
  20660c:	eaffff00 	b	206214 <_svfiprintf_r+0x368>
  206610:	e58d400c 	str	r4, [sp, #12]
  206614:	e59f46f0 	ldr	r4, [pc, #1776]	; 206d0c <_svfiprintf_r+0xe60>
  206618:	e58d0014 	str	r0, [sp, #20]
  20661c:	e5cd1047 	strb	r1, [sp, #71]	; 0x47
  206620:	e58d4034 	str	r4, [sp, #52]	; 0x34
  206624:	eaffffd3 	b	206578 <_svfiprintf_r+0x6cc>
  206628:	e3855010 	orr	r5, r5, #16
  20662c:	e3150010 	tst	r5, #16
  206630:	e58d400c 	str	r4, [sp, #12]
  206634:	e58d0014 	str	r0, [sp, #20]
  206638:	e59d4020 	ldr	r4, [sp, #32]
  20663c:	0affff51 	beq	206388 <_svfiprintf_r+0x4dc>
  206640:	e5943000 	ldr	r3, [r4]
  206644:	e2844004 	add	r4, r4, #4
  206648:	e3a02001 	mov	r2, #1
  20664c:	e58d4020 	str	r4, [sp, #32]
  206650:	eafffecd 	b	20618c <_svfiprintf_r+0x2e0>
  206654:	e3855010 	orr	r5, r5, #16
  206658:	e2153010 	ands	r3, r5, #16
  20665c:	e58d0014 	str	r0, [sp, #20]
  206660:	e58d400c 	str	r4, [sp, #12]
  206664:	1afffec3 	bne	206178 <_svfiprintf_r+0x2cc>
  206668:	e2152040 	ands	r2, r5, #64	; 0x40
  20666c:	159d4020 	ldrne	r4, [sp, #32]
  206670:	059d4020 	ldreq	r4, [sp, #32]
  206674:	11a02003 	movne	r2, r3
  206678:	05943000 	ldreq	r3, [r4]
  20667c:	11d430b0 	ldrhne	r3, [r4]
  206680:	e2844004 	add	r4, r4, #4
  206684:	e58d4020 	str	r4, [sp, #32]
  206688:	eafffebf 	b	20618c <_svfiprintf_r+0x2e0>
  20668c:	e58d0014 	str	r0, [sp, #20]
  206690:	e58d400c 	str	r4, [sp, #12]
  206694:	e5cd1047 	strb	r1, [sp, #71]	; 0x47
  206698:	eaffff62 	b	206428 <_svfiprintf_r+0x57c>
  20669c:	e3a02002 	mov	r2, #2
  2066a0:	eafffeb9 	b	20618c <_svfiprintf_r+0x2e0>
  2066a4:	e3520000 	cmp	r2, #0
  2066a8:	e58d0014 	str	r0, [sp, #20]
  2066ac:	e58d400c 	str	r4, [sp, #12]
  2066b0:	e5cd1047 	strb	r1, [sp, #71]	; 0x47
  2066b4:	0a0000ba 	beq	2069a4 <_svfiprintf_r+0xaf8>
  2066b8:	e3a04001 	mov	r4, #1
  2066bc:	e3a03000 	mov	r3, #0
  2066c0:	e58d4010 	str	r4, [sp, #16]
  2066c4:	e58d4018 	str	r4, [sp, #24]
  2066c8:	e5cd2058 	strb	r2, [sp, #88]	; 0x58
  2066cc:	e5cd3047 	strb	r3, [sp, #71]	; 0x47
  2066d0:	e28d4058 	add	r4, sp, #88	; 0x58
  2066d4:	eaffffca 	b	206604 <_svfiprintf_r+0x758>
  2066d8:	e59d2054 	ldr	r2, [sp, #84]	; 0x54
  2066dc:	e59d3050 	ldr	r3, [sp, #80]	; 0x50
  2066e0:	e5dd1047 	ldrb	r1, [sp, #71]	; 0x47
  2066e4:	e3510000 	cmp	r1, #0
  2066e8:	0a000009 	beq	206714 <_svfiprintf_r+0x868>
  2066ec:	e2833001 	add	r3, r3, #1
  2066f0:	e3530007 	cmp	r3, #7
  2066f4:	e2822001 	add	r2, r2, #1
  2066f8:	e28d0047 	add	r0, sp, #71	; 0x47
  2066fc:	e3a01001 	mov	r1, #1
  206700:	e88c0003 	stm	ip, {r0, r1}
  206704:	e58d3050 	str	r3, [sp, #80]	; 0x50
  206708:	e58d2054 	str	r2, [sp, #84]	; 0x54
  20670c:	d28cc008 	addle	ip, ip, #8
  206710:	ca000112 	bgt	206b60 <_svfiprintf_r+0xcb4>
  206714:	e59d101c 	ldr	r1, [sp, #28]
  206718:	e3510000 	cmp	r1, #0
  20671c:	0a000009 	beq	206748 <_svfiprintf_r+0x89c>
  206720:	e2833001 	add	r3, r3, #1
  206724:	e3530007 	cmp	r3, #7
  206728:	e2822002 	add	r2, r2, #2
  20672c:	e28d0048 	add	r0, sp, #72	; 0x48
  206730:	e3a01002 	mov	r1, #2
  206734:	e88c0003 	stm	ip, {r0, r1}
  206738:	e58d3050 	str	r3, [sp, #80]	; 0x50
  20673c:	e58d2054 	str	r2, [sp, #84]	; 0x54
  206740:	d28cc008 	addle	ip, ip, #8
  206744:	ca0000fb 	bgt	206b38 <_svfiprintf_r+0xc8c>
  206748:	e59d002c 	ldr	r0, [sp, #44]	; 0x2c
  20674c:	e3500080 	cmp	r0, #128	; 0x80
  206750:	0a0000a0 	beq	2069d8 <_svfiprintf_r+0xb2c>
  206754:	e59d0008 	ldr	r0, [sp, #8]
  206758:	e59d1018 	ldr	r1, [sp, #24]
  20675c:	e0617000 	rsb	r7, r1, r0
  206760:	e3570000 	cmp	r7, #0
  206764:	da000039 	ble	206850 <_svfiprintf_r+0x9a4>
  206768:	e3570010 	cmp	r7, #16
  20676c:	d59f059c 	ldrle	r0, [pc, #1436]	; 206d10 <_svfiprintf_r+0xe64>
  206770:	d58d001c 	strle	r0, [sp, #28]
  206774:	da000023 	ble	206808 <_svfiprintf_r+0x95c>
  206778:	e59f1590 	ldr	r1, [pc, #1424]	; 206d10 <_svfiprintf_r+0xe64>
  20677c:	e58d5008 	str	r5, [sp, #8]
  206780:	e58d101c 	str	r1, [sp, #28]
  206784:	e1a05007 	mov	r5, r7
  206788:	e3a0b010 	mov	fp, #16
  20678c:	e1a07004 	mov	r7, r4
  206790:	e1a0100c 	mov	r1, ip
  206794:	e59d4028 	ldr	r4, [sp, #40]	; 0x28
  206798:	ea000002 	b	2067a8 <_svfiprintf_r+0x8fc>
  20679c:	e2455010 	sub	r5, r5, #16
  2067a0:	e3550010 	cmp	r5, #16
  2067a4:	da000013 	ble	2067f8 <_svfiprintf_r+0x94c>
  2067a8:	e2833001 	add	r3, r3, #1
  2067ac:	e3530007 	cmp	r3, #7
  2067b0:	e2822010 	add	r2, r2, #16
  2067b4:	e8810900 	stm	r1, {r8, fp}
  2067b8:	e58d3050 	str	r3, [sp, #80]	; 0x50
  2067bc:	e58d2054 	str	r2, [sp, #84]	; 0x54
  2067c0:	d2811008 	addle	r1, r1, #8
  2067c4:	dafffff4 	ble	20679c <_svfiprintf_r+0x8f0>
  2067c8:	e1a00004 	mov	r0, r4
  2067cc:	e1a0100a 	mov	r1, sl
  2067d0:	e28d204c 	add	r2, sp, #76	; 0x4c
  2067d4:	ebfffd49 	bl	205d00 <__ssprint_r>
  2067d8:	e3500000 	cmp	r0, #0
  2067dc:	1a000076 	bne	2069bc <_svfiprintf_r+0xb10>
  2067e0:	e2455010 	sub	r5, r5, #16
  2067e4:	e3550010 	cmp	r5, #16
  2067e8:	e59d2054 	ldr	r2, [sp, #84]	; 0x54
  2067ec:	e59d3050 	ldr	r3, [sp, #80]	; 0x50
  2067f0:	e1a01009 	mov	r1, r9
  2067f4:	caffffeb 	bgt	2067a8 <_svfiprintf_r+0x8fc>
  2067f8:	e1a04007 	mov	r4, r7
  2067fc:	e1a07005 	mov	r7, r5
  206800:	e59d5008 	ldr	r5, [sp, #8]
  206804:	e1a0c001 	mov	ip, r1
  206808:	e2833001 	add	r3, r3, #1
  20680c:	e59d001c 	ldr	r0, [sp, #28]
  206810:	e3530007 	cmp	r3, #7
  206814:	e0822007 	add	r2, r2, r7
  206818:	e88c0081 	stm	ip, {r0, r7}
  20681c:	e58d3050 	str	r3, [sp, #80]	; 0x50
  206820:	e58d2054 	str	r2, [sp, #84]	; 0x54
  206824:	d28cc008 	addle	ip, ip, #8
  206828:	da000008 	ble	206850 <_svfiprintf_r+0x9a4>
  20682c:	e59d0028 	ldr	r0, [sp, #40]	; 0x28
  206830:	e1a0100a 	mov	r1, sl
  206834:	e28d204c 	add	r2, sp, #76	; 0x4c
  206838:	ebfffd30 	bl	205d00 <__ssprint_r>
  20683c:	e3500000 	cmp	r0, #0
  206840:	1a00005d 	bne	2069bc <_svfiprintf_r+0xb10>
  206844:	e59d2054 	ldr	r2, [sp, #84]	; 0x54
  206848:	e59d3050 	ldr	r3, [sp, #80]	; 0x50
  20684c:	e1a0c009 	mov	ip, r9
  206850:	e59d1018 	ldr	r1, [sp, #24]
  206854:	e2833001 	add	r3, r3, #1
  206858:	e3530007 	cmp	r3, #7
  20685c:	e0812002 	add	r2, r1, r2
  206860:	e58c4000 	str	r4, [ip]
  206864:	e58c1004 	str	r1, [ip, #4]
  206868:	e58d3050 	str	r3, [sp, #80]	; 0x50
  20686c:	e58d2054 	str	r2, [sp, #84]	; 0x54
  206870:	d28cc008 	addle	ip, ip, #8
  206874:	ca000097 	bgt	206ad8 <_svfiprintf_r+0xc2c>
  206878:	e3150004 	tst	r5, #4
  20687c:	0a00002e 	beq	20693c <_svfiprintf_r+0xa90>
  206880:	e28d0010 	add	r0, sp, #16
  206884:	e8900009 	ldm	r0, {r0, r3}
  206888:	e0604003 	rsb	r4, r0, r3
  20688c:	e3540000 	cmp	r4, #0
  206890:	da000029 	ble	20693c <_svfiprintf_r+0xa90>
  206894:	e3540010 	cmp	r4, #16
  206898:	d59f1464 	ldrle	r1, [pc, #1124]	; 206d04 <_svfiprintf_r+0xe58>
  20689c:	e59d3050 	ldr	r3, [sp, #80]	; 0x50
  2068a0:	d58d1030 	strle	r1, [sp, #48]	; 0x30
  2068a4:	da00001c 	ble	20691c <_svfiprintf_r+0xa70>
  2068a8:	e59f0454 	ldr	r0, [pc, #1108]	; 206d04 <_svfiprintf_r+0xe58>
  2068ac:	e3a05010 	mov	r5, #16
  2068b0:	e58d0030 	str	r0, [sp, #48]	; 0x30
  2068b4:	e59d7028 	ldr	r7, [sp, #40]	; 0x28
  2068b8:	ea000002 	b	2068c8 <_svfiprintf_r+0xa1c>
  2068bc:	e2444010 	sub	r4, r4, #16
  2068c0:	e3540010 	cmp	r4, #16
  2068c4:	da000014 	ble	20691c <_svfiprintf_r+0xa70>
  2068c8:	e2833001 	add	r3, r3, #1
  2068cc:	e3530007 	cmp	r3, #7
  2068d0:	e2822010 	add	r2, r2, #16
  2068d4:	e58c6000 	str	r6, [ip]
  2068d8:	e58c5004 	str	r5, [ip, #4]
  2068dc:	e58d3050 	str	r3, [sp, #80]	; 0x50
  2068e0:	e58d2054 	str	r2, [sp, #84]	; 0x54
  2068e4:	d28cc008 	addle	ip, ip, #8
  2068e8:	dafffff3 	ble	2068bc <_svfiprintf_r+0xa10>
  2068ec:	e1a00007 	mov	r0, r7
  2068f0:	e1a0100a 	mov	r1, sl
  2068f4:	e28d204c 	add	r2, sp, #76	; 0x4c
  2068f8:	ebfffd00 	bl	205d00 <__ssprint_r>
  2068fc:	e3500000 	cmp	r0, #0
  206900:	1a00002d 	bne	2069bc <_svfiprintf_r+0xb10>
  206904:	e2444010 	sub	r4, r4, #16
  206908:	e3540010 	cmp	r4, #16
  20690c:	e59d2054 	ldr	r2, [sp, #84]	; 0x54
  206910:	e59d3050 	ldr	r3, [sp, #80]	; 0x50
  206914:	e1a0c009 	mov	ip, r9
  206918:	caffffea 	bgt	2068c8 <_svfiprintf_r+0xa1c>
  20691c:	e2833001 	add	r3, r3, #1
  206920:	e3530007 	cmp	r3, #7
  206924:	e58d3050 	str	r3, [sp, #80]	; 0x50
  206928:	e59d3030 	ldr	r3, [sp, #48]	; 0x30
  20692c:	e0822004 	add	r2, r2, r4
  206930:	e58d2054 	str	r2, [sp, #84]	; 0x54
  206934:	e88c0018 	stm	ip, {r3, r4}
  206938:	ca0000a5 	bgt	206bd4 <_svfiprintf_r+0xd28>
  20693c:	e59d4024 	ldr	r4, [sp, #36]	; 0x24
  206940:	e59d3010 	ldr	r3, [sp, #16]
  206944:	e59d0014 	ldr	r0, [sp, #20]
  206948:	e1530000 	cmp	r3, r0
  20694c:	a0844003 	addge	r4, r4, r3
  206950:	b0844000 	addlt	r4, r4, r0
  206954:	e3520000 	cmp	r2, #0
  206958:	e58d4024 	str	r4, [sp, #36]	; 0x24
  20695c:	1a000066 	bne	206afc <_svfiprintf_r+0xc50>
  206960:	e3a03000 	mov	r3, #0
  206964:	e58d3050 	str	r3, [sp, #80]	; 0x50
  206968:	e1a0c009 	mov	ip, r9
  20696c:	eafffd69 	b	205f18 <_svfiprintf_r+0x6c>
  206970:	e3520000 	cmp	r2, #0
  206974:	158d0018 	strne	r0, [sp, #24]
  206978:	11a04009 	movne	r4, r9
  20697c:	1afffe1c 	bne	2061f4 <_svfiprintf_r+0x348>
  206980:	e3150001 	tst	r5, #1
  206984:	159d403c 	ldrne	r4, [sp, #60]	; 0x3c
  206988:	13a03030 	movne	r3, #48	; 0x30
  20698c:	158d4018 	strne	r4, [sp, #24]
  206990:	15cd307f 	strbne	r3, [sp, #127]	; 0x7f
  206994:	128d407f 	addne	r4, sp, #127	; 0x7f
  206998:	058d2018 	streq	r2, [sp, #24]
  20699c:	01a04009 	moveq	r4, r9
  2069a0:	eafffe13 	b	2061f4 <_svfiprintf_r+0x348>
  2069a4:	e59d3054 	ldr	r3, [sp, #84]	; 0x54
  2069a8:	e3530000 	cmp	r3, #0
  2069ac:	159d0028 	ldrne	r0, [sp, #40]	; 0x28
  2069b0:	11a0100a 	movne	r1, sl
  2069b4:	128d204c 	addne	r2, sp, #76	; 0x4c
  2069b8:	1bfffcd0 	blne	205d00 <__ssprint_r>
  2069bc:	e1da30bc 	ldrh	r3, [sl, #12]
  2069c0:	e59d0024 	ldr	r0, [sp, #36]	; 0x24
  2069c4:	e3130040 	tst	r3, #64	; 0x40
  2069c8:	13e00000 	mvnne	r0, #0
  2069cc:	e28dd0c4 	add	sp, sp, #196	; 0xc4
  2069d0:	e8bd4ff0 	pop	{r4, r5, r6, r7, r8, r9, sl, fp, lr}
  2069d4:	e12fff1e 	bx	lr
  2069d8:	e28d0010 	add	r0, sp, #16
  2069dc:	e8900003 	ldm	r0, {r0, r1}
  2069e0:	e0607001 	rsb	r7, r0, r1
  2069e4:	e3570000 	cmp	r7, #0
  2069e8:	daffff59 	ble	206754 <_svfiprintf_r+0x8a8>
  2069ec:	e3570010 	cmp	r7, #16
  2069f0:	d59f1318 	ldrle	r1, [pc, #792]	; 206d10 <_svfiprintf_r+0xe64>
  2069f4:	d58d101c 	strle	r1, [sp, #28]
  2069f8:	da000023 	ble	206a8c <_svfiprintf_r+0xbe0>
  2069fc:	e59f030c 	ldr	r0, [pc, #780]	; 206d10 <_svfiprintf_r+0xe64>
  206a00:	e58d502c 	str	r5, [sp, #44]	; 0x2c
  206a04:	e58d001c 	str	r0, [sp, #28]
  206a08:	e1a05007 	mov	r5, r7
  206a0c:	e3a0b010 	mov	fp, #16
  206a10:	e1a07004 	mov	r7, r4
  206a14:	e1a0100c 	mov	r1, ip
  206a18:	e59d4028 	ldr	r4, [sp, #40]	; 0x28
  206a1c:	ea000002 	b	206a2c <_svfiprintf_r+0xb80>
  206a20:	e2455010 	sub	r5, r5, #16
  206a24:	e3550010 	cmp	r5, #16
  206a28:	da000013 	ble	206a7c <_svfiprintf_r+0xbd0>
  206a2c:	e2833001 	add	r3, r3, #1
  206a30:	e3530007 	cmp	r3, #7
  206a34:	e2822010 	add	r2, r2, #16
  206a38:	e8810900 	stm	r1, {r8, fp}
  206a3c:	e58d3050 	str	r3, [sp, #80]	; 0x50
  206a40:	e58d2054 	str	r2, [sp, #84]	; 0x54
  206a44:	d2811008 	addle	r1, r1, #8
  206a48:	dafffff4 	ble	206a20 <_svfiprintf_r+0xb74>
  206a4c:	e1a00004 	mov	r0, r4
  206a50:	e1a0100a 	mov	r1, sl
  206a54:	e28d204c 	add	r2, sp, #76	; 0x4c
  206a58:	ebfffca8 	bl	205d00 <__ssprint_r>
  206a5c:	e3500000 	cmp	r0, #0
  206a60:	1affffd5 	bne	2069bc <_svfiprintf_r+0xb10>
  206a64:	e2455010 	sub	r5, r5, #16
  206a68:	e3550010 	cmp	r5, #16
  206a6c:	e59d2054 	ldr	r2, [sp, #84]	; 0x54
  206a70:	e59d3050 	ldr	r3, [sp, #80]	; 0x50
  206a74:	e1a01009 	mov	r1, r9
  206a78:	caffffeb 	bgt	206a2c <_svfiprintf_r+0xb80>
  206a7c:	e1a04007 	mov	r4, r7
  206a80:	e1a07005 	mov	r7, r5
  206a84:	e59d502c 	ldr	r5, [sp, #44]	; 0x2c
  206a88:	e1a0c001 	mov	ip, r1
  206a8c:	e2833001 	add	r3, r3, #1
  206a90:	e59d101c 	ldr	r1, [sp, #28]
  206a94:	e3530007 	cmp	r3, #7
  206a98:	e0822007 	add	r2, r2, r7
  206a9c:	e88c0082 	stm	ip, {r1, r7}
  206aa0:	e58d3050 	str	r3, [sp, #80]	; 0x50
  206aa4:	e58d2054 	str	r2, [sp, #84]	; 0x54
  206aa8:	d28cc008 	addle	ip, ip, #8
  206aac:	daffff28 	ble	206754 <_svfiprintf_r+0x8a8>
  206ab0:	e59d0028 	ldr	r0, [sp, #40]	; 0x28
  206ab4:	e1a0100a 	mov	r1, sl
  206ab8:	e28d204c 	add	r2, sp, #76	; 0x4c
  206abc:	ebfffc8f 	bl	205d00 <__ssprint_r>
  206ac0:	e3500000 	cmp	r0, #0
  206ac4:	1affffbc 	bne	2069bc <_svfiprintf_r+0xb10>
  206ac8:	e59d2054 	ldr	r2, [sp, #84]	; 0x54
  206acc:	e59d3050 	ldr	r3, [sp, #80]	; 0x50
  206ad0:	e1a0c009 	mov	ip, r9
  206ad4:	eaffff1e 	b	206754 <_svfiprintf_r+0x8a8>
  206ad8:	e59d0028 	ldr	r0, [sp, #40]	; 0x28
  206adc:	e1a0100a 	mov	r1, sl
  206ae0:	e28d204c 	add	r2, sp, #76	; 0x4c
  206ae4:	ebfffc85 	bl	205d00 <__ssprint_r>
  206ae8:	e3500000 	cmp	r0, #0
  206aec:	1affffb2 	bne	2069bc <_svfiprintf_r+0xb10>
  206af0:	e59d2054 	ldr	r2, [sp, #84]	; 0x54
  206af4:	e1a0c009 	mov	ip, r9
  206af8:	eaffff5e 	b	206878 <_svfiprintf_r+0x9cc>
  206afc:	e59d0028 	ldr	r0, [sp, #40]	; 0x28
  206b00:	e1a0100a 	mov	r1, sl
  206b04:	e28d204c 	add	r2, sp, #76	; 0x4c
  206b08:	ebfffc7c 	bl	205d00 <__ssprint_r>
  206b0c:	e3500000 	cmp	r0, #0
  206b10:	0affff92 	beq	206960 <_svfiprintf_r+0xab4>
  206b14:	eaffffa8 	b	2069bc <_svfiprintf_r+0xb10>
  206b18:	e59d0028 	ldr	r0, [sp, #40]	; 0x28
  206b1c:	e1a0100a 	mov	r1, sl
  206b20:	e28d204c 	add	r2, sp, #76	; 0x4c
  206b24:	ebfffc75 	bl	205d00 <__ssprint_r>
  206b28:	e3500000 	cmp	r0, #0
  206b2c:	1affffa2 	bne	2069bc <_svfiprintf_r+0xb10>
  206b30:	e1a0c009 	mov	ip, r9
  206b34:	eafffd10 	b	205f7c <_svfiprintf_r+0xd0>
  206b38:	e59d0028 	ldr	r0, [sp, #40]	; 0x28
  206b3c:	e1a0100a 	mov	r1, sl
  206b40:	e28d204c 	add	r2, sp, #76	; 0x4c
  206b44:	ebfffc6d 	bl	205d00 <__ssprint_r>
  206b48:	e3500000 	cmp	r0, #0
  206b4c:	1affff9a 	bne	2069bc <_svfiprintf_r+0xb10>
  206b50:	e59d2054 	ldr	r2, [sp, #84]	; 0x54
  206b54:	e59d3050 	ldr	r3, [sp, #80]	; 0x50
  206b58:	e1a0c009 	mov	ip, r9
  206b5c:	eafffef9 	b	206748 <_svfiprintf_r+0x89c>
  206b60:	e59d0028 	ldr	r0, [sp, #40]	; 0x28
  206b64:	e1a0100a 	mov	r1, sl
  206b68:	e28d204c 	add	r2, sp, #76	; 0x4c
  206b6c:	ebfffc63 	bl	205d00 <__ssprint_r>
  206b70:	e3500000 	cmp	r0, #0
  206b74:	1affff90 	bne	2069bc <_svfiprintf_r+0xb10>
  206b78:	e59d2054 	ldr	r2, [sp, #84]	; 0x54
  206b7c:	e59d3050 	ldr	r3, [sp, #80]	; 0x50
  206b80:	e1a0c009 	mov	ip, r9
  206b84:	eafffee2 	b	206714 <_svfiprintf_r+0x868>
  206b88:	e59d400c 	ldr	r4, [sp, #12]
  206b8c:	eafffcfd 	b	205f88 <_svfiprintf_r+0xdc>
  206b90:	e3530009 	cmp	r3, #9
  206b94:	9a000016 	bls	206bf4 <_svfiprintf_r+0xd48>
  206b98:	e28d007f 	add	r0, sp, #127	; 0x7f
  206b9c:	e59f2170 	ldr	r2, [pc, #368]	; 206d14 <_svfiprintf_r+0xe68>
  206ba0:	e0824293 	umull	r4, r2, r3, r2
  206ba4:	e1a021a2 	lsr	r2, r2, #3
  206ba8:	e0824102 	add	r4, r2, r2, lsl #2
  206bac:	e0433084 	sub	r3, r3, r4, lsl #1
  206bb0:	e1a04000 	mov	r4, r0
  206bb4:	e2830030 	add	r0, r3, #48	; 0x30
  206bb8:	e2523000 	subs	r3, r2, #0
  206bbc:	e5c40000 	strb	r0, [r4]
  206bc0:	e2440001 	sub	r0, r4, #1
  206bc4:	1afffff4 	bne	206b9c <_svfiprintf_r+0xcf0>
  206bc8:	eafffd87 	b	2061ec <_svfiprintf_r+0x340>
  206bcc:	e58d3020 	str	r3, [sp, #32]
  206bd0:	eafffcf8 	b	205fb8 <_svfiprintf_r+0x10c>
  206bd4:	e59d0028 	ldr	r0, [sp, #40]	; 0x28
  206bd8:	e1a0100a 	mov	r1, sl
  206bdc:	e28d204c 	add	r2, sp, #76	; 0x4c
  206be0:	ebfffc46 	bl	205d00 <__ssprint_r>
  206be4:	e3500000 	cmp	r0, #0
  206be8:	1affff73 	bne	2069bc <_svfiprintf_r+0xb10>
  206bec:	e59d2054 	ldr	r2, [sp, #84]	; 0x54
  206bf0:	eaffff51 	b	20693c <_svfiprintf_r+0xa90>
  206bf4:	e2833030 	add	r3, r3, #48	; 0x30
  206bf8:	e5cd307f 	strb	r3, [sp, #127]	; 0x7f
  206bfc:	e59d303c 	ldr	r3, [sp, #60]	; 0x3c
  206c00:	e28d407f 	add	r4, sp, #127	; 0x7f
  206c04:	e58d3018 	str	r3, [sp, #24]
  206c08:	eafffd79 	b	2061f4 <_svfiprintf_r+0x348>
  206c0c:	e59d4020 	ldr	r4, [sp, #32]
  206c10:	e5943000 	ldr	r3, [r4]
  206c14:	e2844004 	add	r4, r4, #4
  206c18:	e58d4020 	str	r4, [sp, #32]
  206c1c:	e59d4024 	ldr	r4, [sp, #36]	; 0x24
  206c20:	e5834000 	str	r4, [r3]
  206c24:	eafffcbb 	b	205f18 <_svfiprintf_r+0x6c>
  206c28:	e1d430f0 	ldrsh	r3, [r4]
  206c2c:	e2844004 	add	r4, r4, #4
  206c30:	e58d4020 	str	r4, [sp, #32]
  206c34:	eafffe03 	b	206448 <_svfiprintf_r+0x59c>
  206c38:	e1d430b0 	ldrh	r3, [r4]
  206c3c:	e2844004 	add	r4, r4, #4
  206c40:	e58d4020 	str	r4, [sp, #32]
  206c44:	eafffe53 	b	206598 <_svfiprintf_r+0x6ec>
  206c48:	e58dc000 	str	ip, [sp]
  206c4c:	e58d7020 	str	r7, [sp, #32]
  206c50:	e58db008 	str	fp, [sp, #8]
  206c54:	ebfffc11 	bl	205ca0 <strlen>
  206c58:	e5dd1047 	ldrb	r1, [sp, #71]	; 0x47
  206c5c:	e58d0018 	str	r0, [sp, #24]
  206c60:	e59dc000 	ldr	ip, [sp]
  206c64:	eafffd62 	b	2061f4 <_svfiprintf_r+0x348>
  206c68:	e3a01040 	mov	r1, #64	; 0x40
  206c6c:	ebfff5b9 	bl	204358 <_malloc_r>
  206c70:	e3500000 	cmp	r0, #0
  206c74:	13a03040 	movne	r3, #64	; 0x40
  206c78:	e58a0000 	str	r0, [sl]
  206c7c:	e58a0010 	str	r0, [sl, #16]
  206c80:	158a3014 	strne	r3, [sl, #20]
  206c84:	1afffc94 	bne	205edc <_svfiprintf_r+0x30>
  206c88:	e59d4028 	ldr	r4, [sp, #40]	; 0x28
  206c8c:	e3a0300c 	mov	r3, #12
  206c90:	e5843000 	str	r3, [r4]
  206c94:	e3e00000 	mvn	r0, #0
  206c98:	eaffff4b 	b	2069cc <_svfiprintf_r+0xb20>
  206c9c:	e59d4008 	ldr	r4, [sp, #8]
  206ca0:	e3540006 	cmp	r4, #6
  206ca4:	23a04006 	movcs	r4, #6
  206ca8:	e1c43fc4 	bic	r3, r4, r4, asr #31
  206cac:	e58d4018 	str	r4, [sp, #24]
  206cb0:	e58d7020 	str	r7, [sp, #32]
  206cb4:	e58d3010 	str	r3, [sp, #16]
  206cb8:	e59f4058 	ldr	r4, [pc, #88]	; 206d18 <_svfiprintf_r+0xe6c>
  206cbc:	eafffe50 	b	206604 <_svfiprintf_r+0x758>
  206cc0:	e59d3008 	ldr	r3, [sp, #8]
  206cc4:	e5dd1047 	ldrb	r1, [sp, #71]	; 0x47
  206cc8:	e58d3018 	str	r3, [sp, #24]
  206ccc:	e58d7020 	str	r7, [sp, #32]
  206cd0:	e58d0008 	str	r0, [sp, #8]
  206cd4:	eafffd46 	b	2061f4 <_svfiprintf_r+0x348>
  206cd8:	e59d3020 	ldr	r3, [sp, #32]
  206cdc:	e5933000 	ldr	r3, [r3]
  206ce0:	e59d2020 	ldr	r2, [sp, #32]
  206ce4:	e3530000 	cmp	r3, #0
  206ce8:	e58d3008 	str	r3, [sp, #8]
  206cec:	e2823004 	add	r3, r2, #4
  206cf0:	aaffffb5 	bge	206bcc <_svfiprintf_r+0xd20>
  206cf4:	e58d3020 	str	r3, [sp, #32]
  206cf8:	e3e03000 	mvn	r3, #0
  206cfc:	e58d3008 	str	r3, [sp, #8]
  206d00:	eafffcac 	b	205fb8 <_svfiprintf_r+0x10c>
  206d04:	002087d8 	.word	0x002087d8
  206d08:	00208880 	.word	0x00208880
  206d0c:	0020886c 	.word	0x0020886c
  206d10:	002087e8 	.word	0x002087e8
  206d14:	cccccccd 	.word	0xcccccccd
  206d18:	00208894 	.word	0x00208894

00206d1c <initialise_monitor_handles>:
  206d1c:	e12fff1e 	bx	lr

00206d20 <_read>:
  206d20:	e1a00002 	mov	r0, r2
  206d24:	e12fff1e 	bx	lr

00206d28 <_lseek>:
  206d28:	e3a00000 	mov	r0, #0
  206d2c:	e12fff1e 	bx	lr

00206d30 <_write>:
  206d30:	e92d4070 	push	{r4, r5, r6, lr}
  206d34:	e2526000 	subs	r6, r2, #0
  206d38:	da000005 	ble	206d54 <_write+0x24>
  206d3c:	e1a04001 	mov	r4, r1
  206d40:	e0815006 	add	r5, r1, r6
  206d44:	e4d40001 	ldrb	r0, [r4], #1
  206d48:	ebffe744 	bl	200a60 <uart_putc>
  206d4c:	e1540005 	cmp	r4, r5
  206d50:	1afffffb 	bne	206d44 <_write+0x14>
  206d54:	e1a00006 	mov	r0, r6
  206d58:	e8bd4070 	pop	{r4, r5, r6, lr}
  206d5c:	e12fff1e 	bx	lr

00206d60 <_open>:
  206d60:	e92d000e 	push	{r1, r2, r3}
  206d64:	e3a00000 	mov	r0, #0
  206d68:	e28dd00c 	add	sp, sp, #12
  206d6c:	e12fff1e 	bx	lr

00206d70 <_close>:
  206d70:	e3a00000 	mov	r0, #0
  206d74:	e12fff1e 	bx	lr

00206d78 <_exit>:
  206d78:	eafffffe 	b	206d78 <_exit>

00206d7c <_kill>:
  206d7c:	e3a00000 	mov	r0, #0
  206d80:	e12fff1e 	bx	lr

00206d84 <_getpid>:
  206d84:	e3a00001 	mov	r0, #1
  206d88:	e12fff1e 	bx	lr

00206d8c <_sbrk>:
  206d8c:	e59f2018 	ldr	r2, [pc, #24]	; 206dac <_sbrk+0x20>
  206d90:	e5923000 	ldr	r3, [r2]
  206d94:	e59f1014 	ldr	r1, [pc, #20]	; 206db0 <_sbrk+0x24>
  206d98:	e0800003 	add	r0, r0, r3
  206d9c:	e5820000 	str	r0, [r2]
  206da0:	e5813000 	str	r3, [r1]
  206da4:	e1a00003 	mov	r0, r3
  206da8:	e12fff1e 	bx	lr
  206dac:	002091ec 	.word	0x002091ec
  206db0:	00209334 	.word	0x00209334

00206db4 <_fstat>:
  206db4:	e3a00000 	mov	r0, #0
  206db8:	e12fff1e 	bx	lr

00206dbc <_stat>:
  206dbc:	e3a00000 	mov	r0, #0
  206dc0:	e12fff1e 	bx	lr

00206dc4 <_link>:
  206dc4:	e3e00000 	mvn	r0, #0
  206dc8:	e12fff1e 	bx	lr

00206dcc <_unlink>:
  206dcc:	e3e00000 	mvn	r0, #0
  206dd0:	e12fff1e 	bx	lr

00206dd4 <_raise>:
  206dd4:	e12fff1e 	bx	lr

00206dd8 <_gettimeofday>:
  206dd8:	e3500000 	cmp	r0, #0
  206ddc:	13a03000 	movne	r3, #0
  206de0:	13a0200a 	movne	r2, #10
  206de4:	1880000c 	stmne	r0, {r2, r3}
  206de8:	e3510000 	cmp	r1, #0
  206dec:	13a03000 	movne	r3, #0
  206df0:	15813000 	strne	r3, [r1]
  206df4:	15813004 	strne	r3, [r1, #4]
  206df8:	e3a00000 	mov	r0, #0
  206dfc:	e12fff1e 	bx	lr

00206e00 <_times>:
  206e00:	e3500000 	cmp	r0, #0
  206e04:	13a03000 	movne	r3, #0
  206e08:	13a0200a 	movne	r2, #10
  206e0c:	1880000c 	stmne	r0, {r2, r3}
  206e10:	15803008 	strne	r3, [r0, #8]
  206e14:	1580300c 	strne	r3, [r0, #12]
  206e18:	e3a0000a 	mov	r0, #10
  206e1c:	e12fff1e 	bx	lr

00206e20 <_isatty>:
  206e20:	e3a00001 	mov	r0, #1
  206e24:	e12fff1e 	bx	lr

00206e28 <_system>:
  206e28:	e3500000 	cmp	r0, #0
  206e2c:	e92d4008 	push	{r3, lr}
  206e30:	1a000001 	bne	206e3c <_system+0x14>
  206e34:	e8bd4008 	pop	{r3, lr}
  206e38:	e12fff1e 	bx	lr
  206e3c:	eb000031 	bl	206f08 <__errno>
  206e40:	e3a03058 	mov	r3, #88	; 0x58
  206e44:	e5803000 	str	r3, [r0]
  206e48:	e3e00000 	mvn	r0, #0
  206e4c:	eafffff8 	b	206e34 <_system+0xc>

00206e50 <_rename>:
  206e50:	e92d4008 	push	{r3, lr}
  206e54:	eb00002b 	bl	206f08 <__errno>
  206e58:	e3a03058 	mov	r3, #88	; 0x58
  206e5c:	e5803000 	str	r3, [r0]
  206e60:	e3e00000 	mvn	r0, #0
  206e64:	e8bd4008 	pop	{r3, lr}
  206e68:	e12fff1e 	bx	lr

00206e6c <_calloc_r>:
  206e6c:	e92d4010 	push	{r4, lr}
  206e70:	e0010192 	mul	r1, r2, r1
  206e74:	ebfff537 	bl	204358 <_malloc_r>
  206e78:	e2504000 	subs	r4, r0, #0
  206e7c:	0a00000b 	beq	206eb0 <_calloc_r+0x44>
  206e80:	e5142004 	ldr	r2, [r4, #-4]
  206e84:	e3c22003 	bic	r2, r2, #3
  206e88:	e2422004 	sub	r2, r2, #4
  206e8c:	e3520024 	cmp	r2, #36	; 0x24
  206e90:	8a000017 	bhi	206ef4 <_calloc_r+0x88>
  206e94:	e3520013 	cmp	r2, #19
  206e98:	91a03004 	movls	r3, r4
  206e9c:	8a000006 	bhi	206ebc <_calloc_r+0x50>
  206ea0:	e3a02000 	mov	r2, #0
  206ea4:	e5832000 	str	r2, [r3]
  206ea8:	e5832004 	str	r2, [r3, #4]
  206eac:	e5832008 	str	r2, [r3, #8]
  206eb0:	e1a00004 	mov	r0, r4
  206eb4:	e8bd4010 	pop	{r4, lr}
  206eb8:	e12fff1e 	bx	lr
  206ebc:	e3a03000 	mov	r3, #0
  206ec0:	e352001b 	cmp	r2, #27
  206ec4:	e5843000 	str	r3, [r4]
  206ec8:	e5843004 	str	r3, [r4, #4]
  206ecc:	92843008 	addls	r3, r4, #8
  206ed0:	9afffff2 	bls	206ea0 <_calloc_r+0x34>
  206ed4:	e3520024 	cmp	r2, #36	; 0x24
  206ed8:	e5843008 	str	r3, [r4, #8]
  206edc:	e584300c 	str	r3, [r4, #12]
  206ee0:	05843010 	streq	r3, [r4, #16]
  206ee4:	05843014 	streq	r3, [r4, #20]
  206ee8:	12843010 	addne	r3, r4, #16
  206eec:	02843018 	addeq	r3, r4, #24
  206ef0:	eaffffea 	b	206ea0 <_calloc_r+0x34>
  206ef4:	e3a01000 	mov	r1, #0
  206ef8:	ebffe6fe 	bl	200af8 <memset>
  206efc:	e1a00004 	mov	r0, r4
  206f00:	e8bd4010 	pop	{r4, lr}
  206f04:	e12fff1e 	bx	lr

00206f08 <__errno>:
  206f08:	e59f3004 	ldr	r3, [pc, #4]	; 206f14 <__errno+0xc>
  206f0c:	e5930000 	ldr	r0, [r3]
  206f10:	e12fff1e 	bx	lr
  206f14:	00208930 	.word	0x00208930

00206f18 <_malloc_trim_r>:
  206f18:	e92d40f8 	push	{r3, r4, r5, r6, r7, lr}
  206f1c:	e59f50e8 	ldr	r5, [pc, #232]	; 20700c <_malloc_trim_r+0xf4>
  206f20:	e1a07001 	mov	r7, r1
  206f24:	e1a04000 	mov	r4, r0
  206f28:	ebfff756 	bl	204c88 <__malloc_lock>
  206f2c:	e5953008 	ldr	r3, [r5, #8]
  206f30:	e5936004 	ldr	r6, [r3, #4]
  206f34:	e3c66003 	bic	r6, r6, #3
  206f38:	e0677006 	rsb	r7, r7, r6
  206f3c:	e2877efe 	add	r7, r7, #4064	; 0xfe0
  206f40:	e287700f 	add	r7, r7, #15
  206f44:	e1a07627 	lsr	r7, r7, #12
  206f48:	e2477001 	sub	r7, r7, #1
  206f4c:	e1a07607 	lsl	r7, r7, #12
  206f50:	e3570a01 	cmp	r7, #4096	; 0x1000
  206f54:	ba000006 	blt	206f74 <_malloc_trim_r+0x5c>
  206f58:	e1a00004 	mov	r0, r4
  206f5c:	e3a01000 	mov	r1, #0
  206f60:	ebfffab1 	bl	205a2c <_sbrk_r>
  206f64:	e5953008 	ldr	r3, [r5, #8]
  206f68:	e0833006 	add	r3, r3, r6
  206f6c:	e1500003 	cmp	r0, r3
  206f70:	0a000004 	beq	206f88 <_malloc_trim_r+0x70>
  206f74:	e1a00004 	mov	r0, r4
  206f78:	ebfff743 	bl	204c8c <__malloc_unlock>
  206f7c:	e3a00000 	mov	r0, #0
  206f80:	e8bd40f8 	pop	{r3, r4, r5, r6, r7, lr}
  206f84:	e12fff1e 	bx	lr
  206f88:	e1a00004 	mov	r0, r4
  206f8c:	e2671000 	rsb	r1, r7, #0
  206f90:	ebfffaa5 	bl	205a2c <_sbrk_r>
  206f94:	e3700001 	cmn	r0, #1
  206f98:	0a00000c 	beq	206fd0 <_malloc_trim_r+0xb8>
  206f9c:	e59f306c 	ldr	r3, [pc, #108]	; 207010 <_malloc_trim_r+0xf8>
  206fa0:	e5951008 	ldr	r1, [r5, #8]
  206fa4:	e5932000 	ldr	r2, [r3]
  206fa8:	e0676006 	rsb	r6, r7, r6
  206fac:	e3866001 	orr	r6, r6, #1
  206fb0:	e1a00004 	mov	r0, r4
  206fb4:	e0677002 	rsb	r7, r7, r2
  206fb8:	e5816004 	str	r6, [r1, #4]
  206fbc:	e5837000 	str	r7, [r3]
  206fc0:	ebfff731 	bl	204c8c <__malloc_unlock>
  206fc4:	e3a00001 	mov	r0, #1
  206fc8:	e8bd40f8 	pop	{r3, r4, r5, r6, r7, lr}
  206fcc:	e12fff1e 	bx	lr
  206fd0:	e1a00004 	mov	r0, r4
  206fd4:	e3a01000 	mov	r1, #0
  206fd8:	ebfffa93 	bl	205a2c <_sbrk_r>
  206fdc:	e5953008 	ldr	r3, [r5, #8]
  206fe0:	e0632000 	rsb	r2, r3, r0
  206fe4:	e352000f 	cmp	r2, #15
  206fe8:	daffffe1 	ble	206f74 <_malloc_trim_r+0x5c>
  206fec:	e59f1020 	ldr	r1, [pc, #32]	; 207014 <_malloc_trim_r+0xfc>
  206ff0:	e591c000 	ldr	ip, [r1]
  206ff4:	e59f1014 	ldr	r1, [pc, #20]	; 207010 <_malloc_trim_r+0xf8>
  206ff8:	e3822001 	orr	r2, r2, #1
  206ffc:	e06c0000 	rsb	r0, ip, r0
  207000:	e5832004 	str	r2, [r3, #4]
  207004:	e5810000 	str	r0, [r1]
  207008:	eaffffd9 	b	206f74 <_malloc_trim_r+0x5c>
  20700c:	00208ddc 	.word	0x00208ddc
  207010:	00209204 	.word	0x00209204
  207014:	002091e4 	.word	0x002091e4

00207018 <_free_r>:
  207018:	e92d40f8 	push	{r3, r4, r5, r6, r7, lr}
  20701c:	e2514000 	subs	r4, r1, #0
  207020:	e1a06000 	mov	r6, r0
  207024:	0a000046 	beq	207144 <_free_r+0x12c>
  207028:	ebfff716 	bl	204c88 <__malloc_lock>
  20702c:	e514e004 	ldr	lr, [r4, #-4]
  207030:	e59f1238 	ldr	r1, [pc, #568]	; 207270 <_free_r+0x258>
  207034:	e3ce3001 	bic	r3, lr, #1
  207038:	e244c008 	sub	ip, r4, #8
  20703c:	e08c2003 	add	r2, ip, r3
  207040:	e5910008 	ldr	r0, [r1, #8]
  207044:	e5925004 	ldr	r5, [r2, #4]
  207048:	e1500002 	cmp	r0, r2
  20704c:	e3c55003 	bic	r5, r5, #3
  207050:	0a00004a 	beq	207180 <_free_r+0x168>
  207054:	e21ee001 	ands	lr, lr, #1
  207058:	e5825004 	str	r5, [r2, #4]
  20705c:	13a0e000 	movne	lr, #0
  207060:	1a000009 	bne	20708c <_free_r+0x74>
  207064:	e5144008 	ldr	r4, [r4, #-8]
  207068:	e064c00c 	rsb	ip, r4, ip
  20706c:	e59c0008 	ldr	r0, [ip, #8]
  207070:	e2817008 	add	r7, r1, #8
  207074:	e1500007 	cmp	r0, r7
  207078:	e0833004 	add	r3, r3, r4
  20707c:	159c400c 	ldrne	r4, [ip, #12]
  207080:	1580400c 	strne	r4, [r0, #12]
  207084:	15840008 	strne	r0, [r4, #8]
  207088:	03a0e001 	moveq	lr, #1
  20708c:	e0820005 	add	r0, r2, r5
  207090:	e5900004 	ldr	r0, [r0, #4]
  207094:	e3100001 	tst	r0, #1
  207098:	1a000009 	bne	2070c4 <_free_r+0xac>
  20709c:	e35e0000 	cmp	lr, #0
  2070a0:	e5920008 	ldr	r0, [r2, #8]
  2070a4:	e0833005 	add	r3, r3, r5
  2070a8:	1a000002 	bne	2070b8 <_free_r+0xa0>
  2070ac:	e59f41c0 	ldr	r4, [pc, #448]	; 207274 <_free_r+0x25c>
  2070b0:	e1500004 	cmp	r0, r4
  2070b4:	0a000047 	beq	2071d8 <_free_r+0x1c0>
  2070b8:	e592200c 	ldr	r2, [r2, #12]
  2070bc:	e580200c 	str	r2, [r0, #12]
  2070c0:	e5820008 	str	r0, [r2, #8]
  2070c4:	e3832001 	orr	r2, r3, #1
  2070c8:	e35e0000 	cmp	lr, #0
  2070cc:	e58c2004 	str	r2, [ip, #4]
  2070d0:	e78c3003 	str	r3, [ip, r3]
  2070d4:	1a000018 	bne	20713c <_free_r+0x124>
  2070d8:	e3530c02 	cmp	r3, #512	; 0x200
  2070dc:	3a00001a 	bcc	20714c <_free_r+0x134>
  2070e0:	e1a024a3 	lsr	r2, r3, #9
  2070e4:	e3520004 	cmp	r2, #4
  2070e8:	8a000042 	bhi	2071f8 <_free_r+0x1e0>
  2070ec:	e1a0e323 	lsr	lr, r3, #6
  2070f0:	e28ee038 	add	lr, lr, #56	; 0x38
  2070f4:	e1a0008e 	lsl	r0, lr, #1
  2070f8:	e0810100 	add	r0, r1, r0, lsl #2
  2070fc:	e5902008 	ldr	r2, [r0, #8]
  207100:	e1520000 	cmp	r2, r0
  207104:	e59f1164 	ldr	r1, [pc, #356]	; 207270 <_free_r+0x258>
  207108:	0a000044 	beq	207220 <_free_r+0x208>
  20710c:	e5921004 	ldr	r1, [r2, #4]
  207110:	e3c11003 	bic	r1, r1, #3
  207114:	e1530001 	cmp	r3, r1
  207118:	2a000002 	bcs	207128 <_free_r+0x110>
  20711c:	e5922008 	ldr	r2, [r2, #8]
  207120:	e1500002 	cmp	r0, r2
  207124:	1afffff8 	bne	20710c <_free_r+0xf4>
  207128:	e592300c 	ldr	r3, [r2, #12]
  20712c:	e58c300c 	str	r3, [ip, #12]
  207130:	e58c2008 	str	r2, [ip, #8]
  207134:	e583c008 	str	ip, [r3, #8]
  207138:	e582c00c 	str	ip, [r2, #12]
  20713c:	e1a00006 	mov	r0, r6
  207140:	ebfff6d1 	bl	204c8c <__malloc_unlock>
  207144:	e8bd40f8 	pop	{r3, r4, r5, r6, r7, lr}
  207148:	e12fff1e 	bx	lr
  20714c:	e5912004 	ldr	r2, [r1, #4]
  207150:	e1a031a3 	lsr	r3, r3, #3
  207154:	e1a00143 	asr	r0, r3, #2
  207158:	e3a0e001 	mov	lr, #1
  20715c:	e182001e 	orr	r0, r2, lr, lsl r0
  207160:	e0813183 	add	r3, r1, r3, lsl #3
  207164:	e5932008 	ldr	r2, [r3, #8]
  207168:	e5810004 	str	r0, [r1, #4]
  20716c:	e58c2008 	str	r2, [ip, #8]
  207170:	e58c300c 	str	r3, [ip, #12]
  207174:	e583c008 	str	ip, [r3, #8]
  207178:	e582c00c 	str	ip, [r2, #12]
  20717c:	eaffffee 	b	20713c <_free_r+0x124>
  207180:	e31e0001 	tst	lr, #1
  207184:	e0853003 	add	r3, r5, r3
  207188:	1a000006 	bne	2071a8 <_free_r+0x190>
  20718c:	e5142008 	ldr	r2, [r4, #-8]
  207190:	e062c00c 	rsb	ip, r2, ip
  207194:	e59c000c 	ldr	r0, [ip, #12]
  207198:	e59ce008 	ldr	lr, [ip, #8]
  20719c:	e58e000c 	str	r0, [lr, #12]
  2071a0:	e580e008 	str	lr, [r0, #8]
  2071a4:	e0833002 	add	r3, r3, r2
  2071a8:	e59f20c8 	ldr	r2, [pc, #200]	; 207278 <_free_r+0x260>
  2071ac:	e5920000 	ldr	r0, [r2]
  2071b0:	e3832001 	orr	r2, r3, #1
  2071b4:	e1530000 	cmp	r3, r0
  2071b8:	e58c2004 	str	r2, [ip, #4]
  2071bc:	e581c008 	str	ip, [r1, #8]
  2071c0:	3affffdd 	bcc	20713c <_free_r+0x124>
  2071c4:	e59f30b0 	ldr	r3, [pc, #176]	; 20727c <_free_r+0x264>
  2071c8:	e1a00006 	mov	r0, r6
  2071cc:	e5931000 	ldr	r1, [r3]
  2071d0:	ebffff50 	bl	206f18 <_malloc_trim_r>
  2071d4:	eaffffd8 	b	20713c <_free_r+0x124>
  2071d8:	e3832001 	orr	r2, r3, #1
  2071dc:	e581c014 	str	ip, [r1, #20]
  2071e0:	e581c010 	str	ip, [r1, #16]
  2071e4:	e58c000c 	str	r0, [ip, #12]
  2071e8:	e58c0008 	str	r0, [ip, #8]
  2071ec:	e58c2004 	str	r2, [ip, #4]
  2071f0:	e78c3003 	str	r3, [ip, r3]
  2071f4:	eaffffd0 	b	20713c <_free_r+0x124>
  2071f8:	e3520014 	cmp	r2, #20
  2071fc:	9282e05b 	addls	lr, r2, #91	; 0x5b
  207200:	91a0008e 	lslls	r0, lr, #1
  207204:	9affffbb 	bls	2070f8 <_free_r+0xe0>
  207208:	e3520054 	cmp	r2, #84	; 0x54
  20720c:	8a00000a 	bhi	20723c <_free_r+0x224>
  207210:	e1a0e623 	lsr	lr, r3, #12
  207214:	e28ee06e 	add	lr, lr, #110	; 0x6e
  207218:	e1a0008e 	lsl	r0, lr, #1
  20721c:	eaffffb5 	b	2070f8 <_free_r+0xe0>
  207220:	e5913004 	ldr	r3, [r1, #4]
  207224:	e1a0e14e 	asr	lr, lr, #2
  207228:	e3a00001 	mov	r0, #1
  20722c:	e1830e10 	orr	r0, r3, r0, lsl lr
  207230:	e1a03002 	mov	r3, r2
  207234:	e5810004 	str	r0, [r1, #4]
  207238:	eaffffbb 	b	20712c <_free_r+0x114>
  20723c:	e3520f55 	cmp	r2, #340	; 0x154
  207240:	91a0e7a3 	lsrls	lr, r3, #15
  207244:	928ee077 	addls	lr, lr, #119	; 0x77
  207248:	91a0008e 	lslls	r0, lr, #1
  20724c:	9affffa9 	bls	2070f8 <_free_r+0xe0>
  207250:	e59f0028 	ldr	r0, [pc, #40]	; 207280 <_free_r+0x268>
  207254:	e1520000 	cmp	r2, r0
  207258:	91a0e923 	lsrls	lr, r3, #18
  20725c:	928ee07c 	addls	lr, lr, #124	; 0x7c
  207260:	91a0008e 	lslls	r0, lr, #1
  207264:	83a000fc 	movhi	r0, #252	; 0xfc
  207268:	83a0e07e 	movhi	lr, #126	; 0x7e
  20726c:	eaffffa1 	b	2070f8 <_free_r+0xe0>
  207270:	00208ddc 	.word	0x00208ddc
  207274:	00208de4 	.word	0x00208de4
  207278:	002091e8 	.word	0x002091e8
  20727c:	00209200 	.word	0x00209200
  207280:	00000554 	.word	0x00000554

00207284 <memmove>:
  207284:	e1500001 	cmp	r0, r1
  207288:	e92d00f0 	push	{r4, r5, r6, r7}
  20728c:	9a00000e 	bls	2072cc <memmove+0x48>
  207290:	e081c002 	add	ip, r1, r2
  207294:	e150000c 	cmp	r0, ip
  207298:	2a00000b 	bcs	2072cc <memmove+0x48>
  20729c:	e3520000 	cmp	r2, #0
  2072a0:	e0803002 	add	r3, r0, r2
  2072a4:	e2422001 	sub	r2, r2, #1
  2072a8:	0a000005 	beq	2072c4 <memmove+0x40>
  2072ac:	e1a0100c 	mov	r1, ip
  2072b0:	e2422001 	sub	r2, r2, #1
  2072b4:	e571c001 	ldrb	ip, [r1, #-1]!
  2072b8:	e3720001 	cmn	r2, #1
  2072bc:	e563c001 	strb	ip, [r3, #-1]!
  2072c0:	1afffffa 	bne	2072b0 <memmove+0x2c>
  2072c4:	e8bd00f0 	pop	{r4, r5, r6, r7}
  2072c8:	e12fff1e 	bx	lr
  2072cc:	e352000f 	cmp	r2, #15
  2072d0:	8a000009 	bhi	2072fc <memmove+0x78>
  2072d4:	e1a03000 	mov	r3, r0
  2072d8:	e3520000 	cmp	r2, #0
  2072dc:	0afffff8 	beq	2072c4 <memmove+0x40>
  2072e0:	e0832002 	add	r2, r3, r2
  2072e4:	e4d1c001 	ldrb	ip, [r1], #1
  2072e8:	e4c3c001 	strb	ip, [r3], #1
  2072ec:	e1530002 	cmp	r3, r2
  2072f0:	1afffffb 	bne	2072e4 <memmove+0x60>
  2072f4:	e8bd00f0 	pop	{r4, r5, r6, r7}
  2072f8:	e12fff1e 	bx	lr
  2072fc:	e1803001 	orr	r3, r0, r1
  207300:	e3130003 	tst	r3, #3
  207304:	1a000027 	bne	2073a8 <memmove+0x124>
  207308:	e2426010 	sub	r6, r2, #16
  20730c:	e1a06226 	lsr	r6, r6, #4
  207310:	e0805206 	add	r5, r0, r6, lsl #4
  207314:	e2855010 	add	r5, r5, #16
  207318:	e1a0c001 	mov	ip, r1
  20731c:	e1a03000 	mov	r3, r0
  207320:	e59c4000 	ldr	r4, [ip]
  207324:	e5834000 	str	r4, [r3]
  207328:	e59c4004 	ldr	r4, [ip, #4]
  20732c:	e5834004 	str	r4, [r3, #4]
  207330:	e59c4008 	ldr	r4, [ip, #8]
  207334:	e5834008 	str	r4, [r3, #8]
  207338:	e59c400c 	ldr	r4, [ip, #12]
  20733c:	e2833010 	add	r3, r3, #16
  207340:	e5034004 	str	r4, [r3, #-4]
  207344:	e1530005 	cmp	r3, r5
  207348:	e28cc010 	add	ip, ip, #16
  20734c:	1afffff3 	bne	207320 <memmove+0x9c>
  207350:	e2863001 	add	r3, r6, #1
  207354:	e202700f 	and	r7, r2, #15
  207358:	e1a03203 	lsl	r3, r3, #4
  20735c:	e3570003 	cmp	r7, #3
  207360:	e0811003 	add	r1, r1, r3
  207364:	e0803003 	add	r3, r0, r3
  207368:	9a000010 	bls	2073b0 <memmove+0x12c>
  20736c:	e1a05001 	mov	r5, r1
  207370:	e1a04003 	mov	r4, r3
  207374:	e1a0c007 	mov	ip, r7
  207378:	e24cc004 	sub	ip, ip, #4
  20737c:	e4956004 	ldr	r6, [r5], #4
  207380:	e35c0003 	cmp	ip, #3
  207384:	e4846004 	str	r6, [r4], #4
  207388:	8afffffa 	bhi	207378 <memmove+0xf4>
  20738c:	e247c004 	sub	ip, r7, #4
  207390:	e3ccc003 	bic	ip, ip, #3
  207394:	e28cc004 	add	ip, ip, #4
  207398:	e083300c 	add	r3, r3, ip
  20739c:	e081100c 	add	r1, r1, ip
  2073a0:	e2022003 	and	r2, r2, #3
  2073a4:	eaffffcb 	b	2072d8 <memmove+0x54>
  2073a8:	e1a03000 	mov	r3, r0
  2073ac:	eaffffcb 	b	2072e0 <memmove+0x5c>
  2073b0:	e1a02007 	mov	r2, r7
  2073b4:	eaffffc7 	b	2072d8 <memmove+0x54>

002073b8 <_realloc_r>:
  2073b8:	e92d4ff0 	push	{r4, r5, r6, r7, r8, r9, sl, fp, lr}
  2073bc:	e2514000 	subs	r4, r1, #0
  2073c0:	e24dd00c 	sub	sp, sp, #12
  2073c4:	e1a08002 	mov	r8, r2
  2073c8:	e1a09000 	mov	r9, r0
  2073cc:	0a0000d1 	beq	207718 <_realloc_r+0x360>
  2073d0:	ebfff62c 	bl	204c88 <__malloc_lock>
  2073d4:	e288600b 	add	r6, r8, #11
  2073d8:	e3560016 	cmp	r6, #22
  2073dc:	83c66007 	bichi	r6, r6, #7
  2073e0:	93a02010 	movls	r2, #16
  2073e4:	81a00fa6 	lsrhi	r0, r6, #31
  2073e8:	91a06002 	movls	r6, r2
  2073ec:	93a00000 	movls	r0, #0
  2073f0:	e5143004 	ldr	r3, [r4, #-4]
  2073f4:	81a02006 	movhi	r2, r6
  2073f8:	e1560008 	cmp	r6, r8
  2073fc:	33800001 	orrcc	r0, r0, #1
  207400:	e3500000 	cmp	r0, #0
  207404:	e3c35003 	bic	r5, r3, #3
  207408:	13a0300c 	movne	r3, #12
  20740c:	e2447008 	sub	r7, r4, #8
  207410:	15893000 	strne	r3, [r9]
  207414:	13a00000 	movne	r0, #0
  207418:	1a000056 	bne	207578 <_realloc_r+0x1c0>
  20741c:	e1550002 	cmp	r5, r2
  207420:	aa000047 	bge	207544 <_realloc_r+0x18c>
  207424:	e59fa4f4 	ldr	sl, [pc, #1268]	; 207920 <_realloc_r+0x568>
  207428:	e59ac008 	ldr	ip, [sl, #8]
  20742c:	e0871005 	add	r1, r7, r5
  207430:	e15c0001 	cmp	ip, r1
  207434:	0a0000bc 	beq	20772c <_realloc_r+0x374>
  207438:	e591e004 	ldr	lr, [r1, #4]
  20743c:	e3ceb001 	bic	fp, lr, #1
  207440:	e081b00b 	add	fp, r1, fp
  207444:	e59bb004 	ldr	fp, [fp, #4]
  207448:	e31b0001 	tst	fp, #1
  20744c:	11a01000 	movne	r1, r0
  207450:	0a000058 	beq	2075b8 <_realloc_r+0x200>
  207454:	e3130001 	tst	r3, #1
  207458:	1a00008d 	bne	207694 <_realloc_r+0x2dc>
  20745c:	e514b008 	ldr	fp, [r4, #-8]
  207460:	e06bb007 	rsb	fp, fp, r7
  207464:	e59b3004 	ldr	r3, [fp, #4]
  207468:	e3510000 	cmp	r1, #0
  20746c:	e3c33003 	bic	r3, r3, #3
  207470:	e0833005 	add	r3, r3, r5
  207474:	0a000059 	beq	2075e0 <_realloc_r+0x228>
  207478:	e151000c 	cmp	r1, ip
  20747c:	e080c003 	add	ip, r0, r3
  207480:	0a0000de 	beq	207800 <_realloc_r+0x448>
  207484:	e15c0002 	cmp	ip, r2
  207488:	ba000054 	blt	2075e0 <_realloc_r+0x228>
  20748c:	e2812008 	add	r2, r1, #8
  207490:	e892000c 	ldm	r2, {r2, r3}
  207494:	e582300c 	str	r3, [r2, #12]
  207498:	e5832008 	str	r2, [r3, #8]
  20749c:	e1a0700b 	mov	r7, fp
  2074a0:	e59b300c 	ldr	r3, [fp, #12]
  2074a4:	e5b71008 	ldr	r1, [r7, #8]!
  2074a8:	e2452004 	sub	r2, r5, #4
  2074ac:	e3520024 	cmp	r2, #36	; 0x24
  2074b0:	e581300c 	str	r3, [r1, #12]
  2074b4:	e5831008 	str	r1, [r3, #8]
  2074b8:	8a00010a 	bhi	2078e8 <_realloc_r+0x530>
  2074bc:	e3520013 	cmp	r2, #19
  2074c0:	91a03007 	movls	r3, r7
  2074c4:	9a000014 	bls	20751c <_realloc_r+0x164>
  2074c8:	e5943000 	ldr	r3, [r4]
  2074cc:	e58b3008 	str	r3, [fp, #8]
  2074d0:	e5943004 	ldr	r3, [r4, #4]
  2074d4:	e352001b 	cmp	r2, #27
  2074d8:	e58b300c 	str	r3, [fp, #12]
  2074dc:	92844008 	addls	r4, r4, #8
  2074e0:	928b3010 	addls	r3, fp, #16
  2074e4:	9a00000c 	bls	20751c <_realloc_r+0x164>
  2074e8:	e5943008 	ldr	r3, [r4, #8]
  2074ec:	e58b3010 	str	r3, [fp, #16]
  2074f0:	e594300c 	ldr	r3, [r4, #12]
  2074f4:	e58b3014 	str	r3, [fp, #20]
  2074f8:	e3520024 	cmp	r2, #36	; 0x24
  2074fc:	05943010 	ldreq	r3, [r4, #16]
  207500:	058b3018 	streq	r3, [fp, #24]
  207504:	05942014 	ldreq	r2, [r4, #20]
  207508:	058b201c 	streq	r2, [fp, #28]
  20750c:	12844010 	addne	r4, r4, #16
  207510:	128b3018 	addne	r3, fp, #24
  207514:	028b3020 	addeq	r3, fp, #32
  207518:	02844018 	addeq	r4, r4, #24
  20751c:	e5942000 	ldr	r2, [r4]
  207520:	e5832000 	str	r2, [r3]
  207524:	e5942004 	ldr	r2, [r4, #4]
  207528:	e5832004 	str	r2, [r3, #4]
  20752c:	e5942008 	ldr	r2, [r4, #8]
  207530:	e5832008 	str	r2, [r3, #8]
  207534:	e59b3004 	ldr	r3, [fp, #4]
  207538:	e1a04007 	mov	r4, r7
  20753c:	e1a0500c 	mov	r5, ip
  207540:	e1a0700b 	mov	r7, fp
  207544:	e0662005 	rsb	r2, r6, r5
  207548:	e352000f 	cmp	r2, #15
  20754c:	e2033001 	and	r3, r3, #1
  207550:	8a00000b 	bhi	207584 <_realloc_r+0x1cc>
  207554:	e1833005 	orr	r3, r3, r5
  207558:	e5873004 	str	r3, [r7, #4]
  20755c:	e0875005 	add	r5, r7, r5
  207560:	e5953004 	ldr	r3, [r5, #4]
  207564:	e3833001 	orr	r3, r3, #1
  207568:	e5853004 	str	r3, [r5, #4]
  20756c:	e1a00009 	mov	r0, r9
  207570:	ebfff5c5 	bl	204c8c <__malloc_unlock>
  207574:	e1a00004 	mov	r0, r4
  207578:	e28dd00c 	add	sp, sp, #12
  20757c:	e8bd4ff0 	pop	{r4, r5, r6, r7, r8, r9, sl, fp, lr}
  207580:	e12fff1e 	bx	lr
  207584:	e0871006 	add	r1, r7, r6
  207588:	e1833006 	orr	r3, r3, r6
  20758c:	e3820001 	orr	r0, r2, #1
  207590:	e5873004 	str	r3, [r7, #4]
  207594:	e5810004 	str	r0, [r1, #4]
  207598:	e0812002 	add	r2, r1, r2
  20759c:	e5923004 	ldr	r3, [r2, #4]
  2075a0:	e3833001 	orr	r3, r3, #1
  2075a4:	e2811008 	add	r1, r1, #8
  2075a8:	e5823004 	str	r3, [r2, #4]
  2075ac:	e1a00009 	mov	r0, r9
  2075b0:	ebfffe98 	bl	207018 <_free_r>
  2075b4:	eaffffec 	b	20756c <_realloc_r+0x1b4>
  2075b8:	e3ce0003 	bic	r0, lr, #3
  2075bc:	e080e005 	add	lr, r0, r5
  2075c0:	e15e0002 	cmp	lr, r2
  2075c4:	baffffa2 	blt	207454 <_realloc_r+0x9c>
  2075c8:	e2811008 	add	r1, r1, #8
  2075cc:	e8910006 	ldm	r1, {r1, r2}
  2075d0:	e1a0500e 	mov	r5, lr
  2075d4:	e581200c 	str	r2, [r1, #12]
  2075d8:	e5821008 	str	r1, [r2, #8]
  2075dc:	eaffffd8 	b	207544 <_realloc_r+0x18c>
  2075e0:	e1530002 	cmp	r3, r2
  2075e4:	ba00002a 	blt	207694 <_realloc_r+0x2dc>
  2075e8:	e1a0700b 	mov	r7, fp
  2075ec:	e5b70008 	ldr	r0, [r7, #8]!
  2075f0:	e59b100c 	ldr	r1, [fp, #12]
  2075f4:	e2452004 	sub	r2, r5, #4
  2075f8:	e3520024 	cmp	r2, #36	; 0x24
  2075fc:	e580100c 	str	r1, [r0, #12]
  207600:	e5810008 	str	r0, [r1, #8]
  207604:	8a000072 	bhi	2077d4 <_realloc_r+0x41c>
  207608:	e3520013 	cmp	r2, #19
  20760c:	91a02007 	movls	r2, r7
  207610:	9a000014 	bls	207668 <_realloc_r+0x2b0>
  207614:	e5941000 	ldr	r1, [r4]
  207618:	e58b1008 	str	r1, [fp, #8]
  20761c:	e5941004 	ldr	r1, [r4, #4]
  207620:	e352001b 	cmp	r2, #27
  207624:	e58b100c 	str	r1, [fp, #12]
  207628:	92844008 	addls	r4, r4, #8
  20762c:	928b2010 	addls	r2, fp, #16
  207630:	9a00000c 	bls	207668 <_realloc_r+0x2b0>
  207634:	e5941008 	ldr	r1, [r4, #8]
  207638:	e58b1010 	str	r1, [fp, #16]
  20763c:	e594100c 	ldr	r1, [r4, #12]
  207640:	e58b1014 	str	r1, [fp, #20]
  207644:	e3520024 	cmp	r2, #36	; 0x24
  207648:	05942010 	ldreq	r2, [r4, #16]
  20764c:	058b2018 	streq	r2, [fp, #24]
  207650:	05941014 	ldreq	r1, [r4, #20]
  207654:	058b101c 	streq	r1, [fp, #28]
  207658:	12844010 	addne	r4, r4, #16
  20765c:	128b2018 	addne	r2, fp, #24
  207660:	028b2020 	addeq	r2, fp, #32
  207664:	02844018 	addeq	r4, r4, #24
  207668:	e5941000 	ldr	r1, [r4]
  20766c:	e5821000 	str	r1, [r2]
  207670:	e5941004 	ldr	r1, [r4, #4]
  207674:	e5821004 	str	r1, [r2, #4]
  207678:	e5941008 	ldr	r1, [r4, #8]
  20767c:	e5821008 	str	r1, [r2, #8]
  207680:	e1a04007 	mov	r4, r7
  207684:	e1a05003 	mov	r5, r3
  207688:	e1a0700b 	mov	r7, fp
  20768c:	e59b3004 	ldr	r3, [fp, #4]
  207690:	eaffffab 	b	207544 <_realloc_r+0x18c>
  207694:	e1a01008 	mov	r1, r8
  207698:	e1a00009 	mov	r0, r9
  20769c:	ebfff32d 	bl	204358 <_malloc_r>
  2076a0:	e2508000 	subs	r8, r0, #0
  2076a4:	0a000015 	beq	207700 <_realloc_r+0x348>
  2076a8:	e5143004 	ldr	r3, [r4, #-4]
  2076ac:	e3c32001 	bic	r2, r3, #1
  2076b0:	e0872002 	add	r2, r7, r2
  2076b4:	e2481008 	sub	r1, r8, #8
  2076b8:	e1510002 	cmp	r1, r2
  2076bc:	0a000085 	beq	2078d8 <_realloc_r+0x520>
  2076c0:	e2452004 	sub	r2, r5, #4
  2076c4:	e3520024 	cmp	r2, #36	; 0x24
  2076c8:	8a000049 	bhi	2077f4 <_realloc_r+0x43c>
  2076cc:	e3520013 	cmp	r2, #19
  2076d0:	91a03008 	movls	r3, r8
  2076d4:	91a02004 	movls	r2, r4
  2076d8:	8a000027 	bhi	20777c <_realloc_r+0x3c4>
  2076dc:	e5921000 	ldr	r1, [r2]
  2076e0:	e5831000 	str	r1, [r3]
  2076e4:	e5921004 	ldr	r1, [r2, #4]
  2076e8:	e5831004 	str	r1, [r3, #4]
  2076ec:	e5922008 	ldr	r2, [r2, #8]
  2076f0:	e5832008 	str	r2, [r3, #8]
  2076f4:	e1a01004 	mov	r1, r4
  2076f8:	e1a00009 	mov	r0, r9
  2076fc:	ebfffe45 	bl	207018 <_free_r>
  207700:	e1a00009 	mov	r0, r9
  207704:	ebfff560 	bl	204c8c <__malloc_unlock>
  207708:	e1a00008 	mov	r0, r8
  20770c:	e28dd00c 	add	sp, sp, #12
  207710:	e8bd4ff0 	pop	{r4, r5, r6, r7, r8, r9, sl, fp, lr}
  207714:	e12fff1e 	bx	lr
  207718:	e1a01002 	mov	r1, r2
  20771c:	ebfff30d 	bl	204358 <_malloc_r>
  207720:	e28dd00c 	add	sp, sp, #12
  207724:	e8bd4ff0 	pop	{r4, r5, r6, r7, r8, r9, sl, fp, lr}
  207728:	e12fff1e 	bx	lr
  20772c:	e59c0004 	ldr	r0, [ip, #4]
  207730:	e3c00003 	bic	r0, r0, #3
  207734:	e0801005 	add	r1, r0, r5
  207738:	e286e010 	add	lr, r6, #16
  20773c:	e151000e 	cmp	r1, lr
  207740:	b1a0100c 	movlt	r1, ip
  207744:	baffff42 	blt	207454 <_realloc_r+0x9c>
  207748:	e0663001 	rsb	r3, r6, r1
  20774c:	e0877006 	add	r7, r7, r6
  207750:	e3833001 	orr	r3, r3, #1
  207754:	e58a7008 	str	r7, [sl, #8]
  207758:	e5873004 	str	r3, [r7, #4]
  20775c:	e5143004 	ldr	r3, [r4, #-4]
  207760:	e2033001 	and	r3, r3, #1
  207764:	e1866003 	orr	r6, r6, r3
  207768:	e1a00009 	mov	r0, r9
  20776c:	e5046004 	str	r6, [r4, #-4]
  207770:	ebfff545 	bl	204c8c <__malloc_unlock>
  207774:	e1a00004 	mov	r0, r4
  207778:	eaffff7e 	b	207578 <_realloc_r+0x1c0>
  20777c:	e5943000 	ldr	r3, [r4]
  207780:	e5883000 	str	r3, [r8]
  207784:	e5943004 	ldr	r3, [r4, #4]
  207788:	e352001b 	cmp	r2, #27
  20778c:	e5883004 	str	r3, [r8, #4]
  207790:	92842008 	addls	r2, r4, #8
  207794:	92883008 	addls	r3, r8, #8
  207798:	9affffcf 	bls	2076dc <_realloc_r+0x324>
  20779c:	e5943008 	ldr	r3, [r4, #8]
  2077a0:	e5883008 	str	r3, [r8, #8]
  2077a4:	e594300c 	ldr	r3, [r4, #12]
  2077a8:	e588300c 	str	r3, [r8, #12]
  2077ac:	e3520024 	cmp	r2, #36	; 0x24
  2077b0:	05943010 	ldreq	r3, [r4, #16]
  2077b4:	05883010 	streq	r3, [r8, #16]
  2077b8:	05942014 	ldreq	r2, [r4, #20]
  2077bc:	12883010 	addne	r3, r8, #16
  2077c0:	05882014 	streq	r2, [r8, #20]
  2077c4:	12842010 	addne	r2, r4, #16
  2077c8:	02883018 	addeq	r3, r8, #24
  2077cc:	02842018 	addeq	r2, r4, #24
  2077d0:	eaffffc1 	b	2076dc <_realloc_r+0x324>
  2077d4:	e1a01004 	mov	r1, r4
  2077d8:	e1a00007 	mov	r0, r7
  2077dc:	e1a05003 	mov	r5, r3
  2077e0:	e1a04007 	mov	r4, r7
  2077e4:	ebfffea6 	bl	207284 <memmove>
  2077e8:	e1a0700b 	mov	r7, fp
  2077ec:	e59b3004 	ldr	r3, [fp, #4]
  2077f0:	eaffff53 	b	207544 <_realloc_r+0x18c>
  2077f4:	e1a01004 	mov	r1, r4
  2077f8:	ebfffea1 	bl	207284 <memmove>
  2077fc:	eaffffbc 	b	2076f4 <_realloc_r+0x33c>
  207800:	e2861010 	add	r1, r6, #16
  207804:	e15c0001 	cmp	ip, r1
  207808:	baffff74 	blt	2075e0 <_realloc_r+0x228>
  20780c:	e1a0700b 	mov	r7, fp
  207810:	e5b71008 	ldr	r1, [r7, #8]!
  207814:	e59b300c 	ldr	r3, [fp, #12]
  207818:	e2452004 	sub	r2, r5, #4
  20781c:	e3520024 	cmp	r2, #36	; 0x24
  207820:	e581300c 	str	r3, [r1, #12]
  207824:	e5831008 	str	r1, [r3, #8]
  207828:	8a000036 	bhi	207908 <_realloc_r+0x550>
  20782c:	e3520013 	cmp	r2, #19
  207830:	91a03007 	movls	r3, r7
  207834:	9a000014 	bls	20788c <_realloc_r+0x4d4>
  207838:	e5943000 	ldr	r3, [r4]
  20783c:	e58b3008 	str	r3, [fp, #8]
  207840:	e5943004 	ldr	r3, [r4, #4]
  207844:	e352001b 	cmp	r2, #27
  207848:	e58b300c 	str	r3, [fp, #12]
  20784c:	92844008 	addls	r4, r4, #8
  207850:	928b3010 	addls	r3, fp, #16
  207854:	9a00000c 	bls	20788c <_realloc_r+0x4d4>
  207858:	e5943008 	ldr	r3, [r4, #8]
  20785c:	e58b3010 	str	r3, [fp, #16]
  207860:	e594300c 	ldr	r3, [r4, #12]
  207864:	e58b3014 	str	r3, [fp, #20]
  207868:	e3520024 	cmp	r2, #36	; 0x24
  20786c:	05943010 	ldreq	r3, [r4, #16]
  207870:	058b3018 	streq	r3, [fp, #24]
  207874:	05942014 	ldreq	r2, [r4, #20]
  207878:	058b201c 	streq	r2, [fp, #28]
  20787c:	12844010 	addne	r4, r4, #16
  207880:	128b3018 	addne	r3, fp, #24
  207884:	028b3020 	addeq	r3, fp, #32
  207888:	02844018 	addeq	r4, r4, #24
  20788c:	e5942000 	ldr	r2, [r4]
  207890:	e5832000 	str	r2, [r3]
  207894:	e5942004 	ldr	r2, [r4, #4]
  207898:	e5832004 	str	r2, [r3, #4]
  20789c:	e5942008 	ldr	r2, [r4, #8]
  2078a0:	e5832008 	str	r2, [r3, #8]
  2078a4:	e066200c 	rsb	r2, r6, ip
  2078a8:	e08b3006 	add	r3, fp, r6
  2078ac:	e3822001 	orr	r2, r2, #1
  2078b0:	e58a3008 	str	r3, [sl, #8]
  2078b4:	e5832004 	str	r2, [r3, #4]
  2078b8:	e59b3004 	ldr	r3, [fp, #4]
  2078bc:	e2033001 	and	r3, r3, #1
  2078c0:	e1866003 	orr	r6, r6, r3
  2078c4:	e1a00009 	mov	r0, r9
  2078c8:	e58b6004 	str	r6, [fp, #4]
  2078cc:	ebfff4ee 	bl	204c8c <__malloc_unlock>
  2078d0:	e1a00007 	mov	r0, r7
  2078d4:	eaffff27 	b	207578 <_realloc_r+0x1c0>
  2078d8:	e5182004 	ldr	r2, [r8, #-4]
  2078dc:	e3c22003 	bic	r2, r2, #3
  2078e0:	e0855002 	add	r5, r5, r2
  2078e4:	eaffff16 	b	207544 <_realloc_r+0x18c>
  2078e8:	e1a01004 	mov	r1, r4
  2078ec:	e1a00007 	mov	r0, r7
  2078f0:	e1a0500c 	mov	r5, ip
  2078f4:	e1a04007 	mov	r4, r7
  2078f8:	ebfffe61 	bl	207284 <memmove>
  2078fc:	e1a0700b 	mov	r7, fp
  207900:	e59b3004 	ldr	r3, [fp, #4]
  207904:	eaffff0e 	b	207544 <_realloc_r+0x18c>
  207908:	e1a01004 	mov	r1, r4
  20790c:	e1a00007 	mov	r0, r7
  207910:	e58dc004 	str	ip, [sp, #4]
  207914:	ebfffe5a 	bl	207284 <memmove>
  207918:	e59dc004 	ldr	ip, [sp, #4]
  20791c:	eaffffe0 	b	2078a4 <_realloc_r+0x4ec>
  207920:	00208ddc 	.word	0x00208ddc

00207924 <cleanup_glue>:
  207924:	e92d4038 	push	{r3, r4, r5, lr}
  207928:	e1a04001 	mov	r4, r1
  20792c:	e5911000 	ldr	r1, [r1]
  207930:	e3510000 	cmp	r1, #0
  207934:	e1a05000 	mov	r5, r0
  207938:	1bfffff9 	blne	207924 <cleanup_glue>
  20793c:	e1a00005 	mov	r0, r5
  207940:	e1a01004 	mov	r1, r4
  207944:	ebfffdb3 	bl	207018 <_free_r>
  207948:	e8bd4038 	pop	{r3, r4, r5, lr}
  20794c:	e12fff1e 	bx	lr

00207950 <_reclaim_reent>:
  207950:	e59f30fc 	ldr	r3, [pc, #252]	; 207a54 <_reclaim_reent+0x104>
  207954:	e5933000 	ldr	r3, [r3]
  207958:	e1500003 	cmp	r0, r3
  20795c:	e92d4070 	push	{r4, r5, r6, lr}
  207960:	e1a05000 	mov	r5, r0
  207964:	0a00002e 	beq	207a24 <_reclaim_reent+0xd4>
  207968:	e590204c 	ldr	r2, [r0, #76]	; 0x4c
  20796c:	e3520000 	cmp	r2, #0
  207970:	0a000013 	beq	2079c4 <_reclaim_reent+0x74>
  207974:	e3a03000 	mov	r3, #0
  207978:	e1a06003 	mov	r6, r3
  20797c:	e7921103 	ldr	r1, [r2, r3, lsl #2]
  207980:	e3510000 	cmp	r1, #0
  207984:	1a000001 	bne	207990 <_reclaim_reent+0x40>
  207988:	ea000006 	b	2079a8 <_reclaim_reent+0x58>
  20798c:	e1a01004 	mov	r1, r4
  207990:	e5914000 	ldr	r4, [r1]
  207994:	e1a00005 	mov	r0, r5
  207998:	ebfffd9e 	bl	207018 <_free_r>
  20799c:	e3540000 	cmp	r4, #0
  2079a0:	1afffff9 	bne	20798c <_reclaim_reent+0x3c>
  2079a4:	e595204c 	ldr	r2, [r5, #76]	; 0x4c
  2079a8:	e2866001 	add	r6, r6, #1
  2079ac:	e3560020 	cmp	r6, #32
  2079b0:	e1a03006 	mov	r3, r6
  2079b4:	1afffff0 	bne	20797c <_reclaim_reent+0x2c>
  2079b8:	e1a01002 	mov	r1, r2
  2079bc:	e1a00005 	mov	r0, r5
  2079c0:	ebfffd94 	bl	207018 <_free_r>
  2079c4:	e5951040 	ldr	r1, [r5, #64]	; 0x40
  2079c8:	e3510000 	cmp	r1, #0
  2079cc:	11a00005 	movne	r0, r5
  2079d0:	1bfffd90 	blne	207018 <_free_r>
  2079d4:	e5951148 	ldr	r1, [r5, #328]	; 0x148
  2079d8:	e3510000 	cmp	r1, #0
  2079dc:	0a000009 	beq	207a08 <_reclaim_reent+0xb8>
  2079e0:	e2856f53 	add	r6, r5, #332	; 0x14c
  2079e4:	e1510006 	cmp	r1, r6
  2079e8:	1a000001 	bne	2079f4 <_reclaim_reent+0xa4>
  2079ec:	ea000005 	b	207a08 <_reclaim_reent+0xb8>
  2079f0:	e1a01004 	mov	r1, r4
  2079f4:	e5914000 	ldr	r4, [r1]
  2079f8:	e1a00005 	mov	r0, r5
  2079fc:	ebfffd85 	bl	207018 <_free_r>
  207a00:	e1560004 	cmp	r6, r4
  207a04:	1afffff9 	bne	2079f0 <_reclaim_reent+0xa0>
  207a08:	e5951054 	ldr	r1, [r5, #84]	; 0x54
  207a0c:	e3510000 	cmp	r1, #0
  207a10:	11a00005 	movne	r0, r5
  207a14:	1bfffd7f 	blne	207018 <_free_r>
  207a18:	e5953038 	ldr	r3, [r5, #56]	; 0x38
  207a1c:	e3530000 	cmp	r3, #0
  207a20:	1a000001 	bne	207a2c <_reclaim_reent+0xdc>
  207a24:	e8bd4070 	pop	{r4, r5, r6, lr}
  207a28:	e12fff1e 	bx	lr
  207a2c:	e1a00005 	mov	r0, r5
  207a30:	e595c03c 	ldr	ip, [r5, #60]	; 0x3c
  207a34:	e1a0e00f 	mov	lr, pc
  207a38:	e12fff1c 	bx	ip
  207a3c:	e59512e0 	ldr	r1, [r5, #736]	; 0x2e0
  207a40:	e3510000 	cmp	r1, #0
  207a44:	0afffff6 	beq	207a24 <_reclaim_reent+0xd4>
  207a48:	e1a00005 	mov	r0, r5
  207a4c:	e8bd4070 	pop	{r4, r5, r6, lr}
  207a50:	eaffffb3 	b	207924 <cleanup_glue>
  207a54:	00208930 	.word	0x00208930

00207a58 <_wrapup_reent>:
  207a58:	e92d40f8 	push	{r3, r4, r5, r6, r7, lr}
  207a5c:	e2507000 	subs	r7, r0, #0
  207a60:	059f3060 	ldreq	r3, [pc, #96]	; 207ac8 <_wrapup_reent+0x70>
  207a64:	05937000 	ldreq	r7, [r3]
  207a68:	e5976148 	ldr	r6, [r7, #328]	; 0x148
  207a6c:	e3560000 	cmp	r6, #0
  207a70:	0a00000d 	beq	207aac <_wrapup_reent+0x54>
  207a74:	e5965004 	ldr	r5, [r6, #4]
  207a78:	e2554001 	subs	r4, r5, #1
  207a7c:	52855002 	addpl	r5, r5, #2
  207a80:	50865105 	addpl	r5, r6, r5, lsl #2
  207a84:	4a000005 	bmi	207aa0 <_wrapup_reent+0x48>
  207a88:	e2444001 	sub	r4, r4, #1
  207a8c:	e5353004 	ldr	r3, [r5, #-4]!
  207a90:	e1a0e00f 	mov	lr, pc
  207a94:	e12fff13 	bx	r3
  207a98:	e3740001 	cmn	r4, #1
  207a9c:	1afffff9 	bne	207a88 <_wrapup_reent+0x30>
  207aa0:	e5966000 	ldr	r6, [r6]
  207aa4:	e3560000 	cmp	r6, #0
  207aa8:	1afffff1 	bne	207a74 <_wrapup_reent+0x1c>
  207aac:	e597303c 	ldr	r3, [r7, #60]	; 0x3c
  207ab0:	e3530000 	cmp	r3, #0
  207ab4:	11a00007 	movne	r0, r7
  207ab8:	11a0e00f 	movne	lr, pc
  207abc:	112fff13 	bxne	r3
  207ac0:	e8bd40f8 	pop	{r3, r4, r5, r6, r7, lr}
  207ac4:	e12fff1e 	bx	lr
  207ac8:	00208930 	.word	0x00208930

00207acc <__aeabi_uidiv>:
  207acc:	e2512001 	subs	r2, r1, #1
  207ad0:	012fff1e 	bxeq	lr
  207ad4:	3a000036 	bcc	207bb4 <__aeabi_uidiv+0xe8>
  207ad8:	e1500001 	cmp	r0, r1
  207adc:	9a000022 	bls	207b6c <__aeabi_uidiv+0xa0>
  207ae0:	e1110002 	tst	r1, r2
  207ae4:	0a000023 	beq	207b78 <__aeabi_uidiv+0xac>
  207ae8:	e311020e 	tst	r1, #-536870912	; 0xe0000000
  207aec:	01a01181 	lsleq	r1, r1, #3
  207af0:	03a03008 	moveq	r3, #8
  207af4:	13a03001 	movne	r3, #1
  207af8:	e3510201 	cmp	r1, #268435456	; 0x10000000
  207afc:	31510000 	cmpcc	r1, r0
  207b00:	31a01201 	lslcc	r1, r1, #4
  207b04:	31a03203 	lslcc	r3, r3, #4
  207b08:	3afffffa 	bcc	207af8 <__aeabi_uidiv+0x2c>
  207b0c:	e3510102 	cmp	r1, #-2147483648	; 0x80000000
  207b10:	31510000 	cmpcc	r1, r0
  207b14:	31a01081 	lslcc	r1, r1, #1
  207b18:	31a03083 	lslcc	r3, r3, #1
  207b1c:	3afffffa 	bcc	207b0c <__aeabi_uidiv+0x40>
  207b20:	e3a02000 	mov	r2, #0
  207b24:	e1500001 	cmp	r0, r1
  207b28:	20400001 	subcs	r0, r0, r1
  207b2c:	21822003 	orrcs	r2, r2, r3
  207b30:	e15000a1 	cmp	r0, r1, lsr #1
  207b34:	204000a1 	subcs	r0, r0, r1, lsr #1
  207b38:	218220a3 	orrcs	r2, r2, r3, lsr #1
  207b3c:	e1500121 	cmp	r0, r1, lsr #2
  207b40:	20400121 	subcs	r0, r0, r1, lsr #2
  207b44:	21822123 	orrcs	r2, r2, r3, lsr #2
  207b48:	e15001a1 	cmp	r0, r1, lsr #3
  207b4c:	204001a1 	subcs	r0, r0, r1, lsr #3
  207b50:	218221a3 	orrcs	r2, r2, r3, lsr #3
  207b54:	e3500000 	cmp	r0, #0
  207b58:	11b03223 	lsrsne	r3, r3, #4
  207b5c:	11a01221 	lsrne	r1, r1, #4
  207b60:	1affffef 	bne	207b24 <__aeabi_uidiv+0x58>
  207b64:	e1a00002 	mov	r0, r2
  207b68:	e12fff1e 	bx	lr
  207b6c:	03a00001 	moveq	r0, #1
  207b70:	13a00000 	movne	r0, #0
  207b74:	e12fff1e 	bx	lr
  207b78:	e3510801 	cmp	r1, #65536	; 0x10000
  207b7c:	21a01821 	lsrcs	r1, r1, #16
  207b80:	23a02010 	movcs	r2, #16
  207b84:	33a02000 	movcc	r2, #0
  207b88:	e3510c01 	cmp	r1, #256	; 0x100
  207b8c:	21a01421 	lsrcs	r1, r1, #8
  207b90:	22822008 	addcs	r2, r2, #8
  207b94:	e3510010 	cmp	r1, #16
  207b98:	21a01221 	lsrcs	r1, r1, #4
  207b9c:	22822004 	addcs	r2, r2, #4
  207ba0:	e3510004 	cmp	r1, #4
  207ba4:	82822003 	addhi	r2, r2, #3
  207ba8:	908220a1 	addls	r2, r2, r1, lsr #1
  207bac:	e1a00230 	lsr	r0, r0, r2
  207bb0:	e12fff1e 	bx	lr
  207bb4:	e3500000 	cmp	r0, #0
  207bb8:	13e00000 	mvnne	r0, #0
  207bbc:	ea000007 	b	207be0 <__aeabi_idiv0>

00207bc0 <__aeabi_uidivmod>:
  207bc0:	e3510000 	cmp	r1, #0
  207bc4:	0afffffa 	beq	207bb4 <__aeabi_uidiv+0xe8>
  207bc8:	e92d4003 	push	{r0, r1, lr}
  207bcc:	ebffffbe 	bl	207acc <__aeabi_uidiv>
  207bd0:	e8bd4006 	pop	{r1, r2, lr}
  207bd4:	e0030092 	mul	r3, r2, r0
  207bd8:	e0411003 	sub	r1, r1, r3
  207bdc:	e12fff1e 	bx	lr

00207be0 <__aeabi_idiv0>:
  207be0:	e12fff1e 	bx	lr

00207be4 <__aeabi_drsub>:
  207be4:	e2211102 	eor	r1, r1, #-2147483648	; 0x80000000
  207be8:	ea000000 	b	207bf0 <__adddf3>

00207bec <__aeabi_dsub>:
  207bec:	e2233102 	eor	r3, r3, #-2147483648	; 0x80000000

00207bf0 <__adddf3>:
  207bf0:	e92d4030 	push	{r4, r5, lr}
  207bf4:	e1a04081 	lsl	r4, r1, #1
  207bf8:	e1a05083 	lsl	r5, r3, #1
  207bfc:	e1340005 	teq	r4, r5
  207c00:	01300002 	teqeq	r0, r2
  207c04:	1194c000 	orrsne	ip, r4, r0
  207c08:	1195c002 	orrsne	ip, r5, r2
  207c0c:	11f0cac4 	mvnsne	ip, r4, asr #21
  207c10:	11f0cac5 	mvnsne	ip, r5, asr #21
  207c14:	0a00008c 	beq	207e4c <__adddf3+0x25c>
  207c18:	e1a04aa4 	lsr	r4, r4, #21
  207c1c:	e0745aa5 	rsbs	r5, r4, r5, lsr #21
  207c20:	b2655000 	rsblt	r5, r5, #0
  207c24:	da000006 	ble	207c44 <__adddf3+0x54>
  207c28:	e0844005 	add	r4, r4, r5
  207c2c:	e0202002 	eor	r2, r0, r2
  207c30:	e0213003 	eor	r3, r1, r3
  207c34:	e0220000 	eor	r0, r2, r0
  207c38:	e0231001 	eor	r1, r3, r1
  207c3c:	e0202002 	eor	r2, r0, r2
  207c40:	e0213003 	eor	r3, r1, r3
  207c44:	e3550036 	cmp	r5, #54	; 0x36
  207c48:	88bd4030 	pophi	{r4, r5, lr}
  207c4c:	812fff1e 	bxhi	lr
  207c50:	e3110102 	tst	r1, #-2147483648	; 0x80000000
  207c54:	e1a01601 	lsl	r1, r1, #12
  207c58:	e3a0c601 	mov	ip, #1048576	; 0x100000
  207c5c:	e18c1621 	orr	r1, ip, r1, lsr #12
  207c60:	0a000001 	beq	207c6c <__adddf3+0x7c>
  207c64:	e2700000 	rsbs	r0, r0, #0
  207c68:	e2e11000 	rsc	r1, r1, #0
  207c6c:	e3130102 	tst	r3, #-2147483648	; 0x80000000
  207c70:	e1a03603 	lsl	r3, r3, #12
  207c74:	e18c3623 	orr	r3, ip, r3, lsr #12
  207c78:	0a000001 	beq	207c84 <__adddf3+0x94>
  207c7c:	e2722000 	rsbs	r2, r2, #0
  207c80:	e2e33000 	rsc	r3, r3, #0
  207c84:	e1340005 	teq	r4, r5
  207c88:	0a000069 	beq	207e34 <__adddf3+0x244>
  207c8c:	e2444001 	sub	r4, r4, #1
  207c90:	e275e020 	rsbs	lr, r5, #32
  207c94:	ba000005 	blt	207cb0 <__adddf3+0xc0>
  207c98:	e1a0ce12 	lsl	ip, r2, lr
  207c9c:	e0900532 	adds	r0, r0, r2, lsr r5
  207ca0:	e2a11000 	adc	r1, r1, #0
  207ca4:	e0900e13 	adds	r0, r0, r3, lsl lr
  207ca8:	e0b11553 	adcs	r1, r1, r3, asr r5
  207cac:	ea000006 	b	207ccc <__adddf3+0xdc>
  207cb0:	e2455020 	sub	r5, r5, #32
  207cb4:	e28ee020 	add	lr, lr, #32
  207cb8:	e3520001 	cmp	r2, #1
  207cbc:	e1a0ce13 	lsl	ip, r3, lr
  207cc0:	238cc002 	orrcs	ip, ip, #2
  207cc4:	e0900553 	adds	r0, r0, r3, asr r5
  207cc8:	e0b11fc3 	adcs	r1, r1, r3, asr #31
  207ccc:	e2015102 	and	r5, r1, #-2147483648	; 0x80000000
  207cd0:	5a000002 	bpl	207ce0 <__adddf3+0xf0>
  207cd4:	e27cc000 	rsbs	ip, ip, #0
  207cd8:	e2f00000 	rscs	r0, r0, #0
  207cdc:	e2e11000 	rsc	r1, r1, #0
  207ce0:	e3510601 	cmp	r1, #1048576	; 0x100000
  207ce4:	3a00000f 	bcc	207d28 <__adddf3+0x138>
  207ce8:	e3510602 	cmp	r1, #2097152	; 0x200000
  207cec:	3a000006 	bcc	207d0c <__adddf3+0x11c>
  207cf0:	e1b010a1 	lsrs	r1, r1, #1
  207cf4:	e1b00060 	rrxs	r0, r0
  207cf8:	e1a0c06c 	rrx	ip, ip
  207cfc:	e2844001 	add	r4, r4, #1
  207d00:	e1a02a84 	lsl	r2, r4, #21
  207d04:	e3720501 	cmn	r2, #4194304	; 0x400000
  207d08:	2a00006b 	bcs	207ebc <__adddf3+0x2cc>
  207d0c:	e35c0102 	cmp	ip, #-2147483648	; 0x80000000
  207d10:	01b0c0a0 	lsrseq	ip, r0, #1
  207d14:	e2b00000 	adcs	r0, r0, #0
  207d18:	e0a11a04 	adc	r1, r1, r4, lsl #20
  207d1c:	e1811005 	orr	r1, r1, r5
  207d20:	e8bd4030 	pop	{r4, r5, lr}
  207d24:	e12fff1e 	bx	lr
  207d28:	e1b0c08c 	lsls	ip, ip, #1
  207d2c:	e0b00000 	adcs	r0, r0, r0
  207d30:	e0a11001 	adc	r1, r1, r1
  207d34:	e3110601 	tst	r1, #1048576	; 0x100000
  207d38:	e2444001 	sub	r4, r4, #1
  207d3c:	1afffff2 	bne	207d0c <__adddf3+0x11c>
  207d40:	e3310000 	teq	r1, #0
  207d44:	13a03014 	movne	r3, #20
  207d48:	03a03034 	moveq	r3, #52	; 0x34
  207d4c:	01a01000 	moveq	r1, r0
  207d50:	03a00000 	moveq	r0, #0
  207d54:	e1a02001 	mov	r2, r1
  207d58:	e3520801 	cmp	r2, #65536	; 0x10000
  207d5c:	21a02822 	lsrcs	r2, r2, #16
  207d60:	22433010 	subcs	r3, r3, #16
  207d64:	e3520c01 	cmp	r2, #256	; 0x100
  207d68:	21a02422 	lsrcs	r2, r2, #8
  207d6c:	22433008 	subcs	r3, r3, #8
  207d70:	e3520010 	cmp	r2, #16
  207d74:	21a02222 	lsrcs	r2, r2, #4
  207d78:	22433004 	subcs	r3, r3, #4
  207d7c:	e3520004 	cmp	r2, #4
  207d80:	22433002 	subcs	r3, r3, #2
  207d84:	304330a2 	subcc	r3, r3, r2, lsr #1
  207d88:	e04331a2 	sub	r3, r3, r2, lsr #3
  207d8c:	e2532020 	subs	r2, r3, #32
  207d90:	aa000007 	bge	207db4 <__adddf3+0x1c4>
  207d94:	e292200c 	adds	r2, r2, #12
  207d98:	da000004 	ble	207db0 <__adddf3+0x1c0>
  207d9c:	e282c014 	add	ip, r2, #20
  207da0:	e262200c 	rsb	r2, r2, #12
  207da4:	e1a00c11 	lsl	r0, r1, ip
  207da8:	e1a01231 	lsr	r1, r1, r2
  207dac:	ea000004 	b	207dc4 <__adddf3+0x1d4>
  207db0:	e2822014 	add	r2, r2, #20
  207db4:	d262c020 	rsble	ip, r2, #32
  207db8:	e1a01211 	lsl	r1, r1, r2
  207dbc:	d1811c30 	orrle	r1, r1, r0, lsr ip
  207dc0:	d1a00210 	lslle	r0, r0, r2
  207dc4:	e0544003 	subs	r4, r4, r3
  207dc8:	a0811a04 	addge	r1, r1, r4, lsl #20
  207dcc:	a1811005 	orrge	r1, r1, r5
  207dd0:	a8bd4030 	popge	{r4, r5, lr}
  207dd4:	a12fff1e 	bxge	lr
  207dd8:	e1e04004 	mvn	r4, r4
  207ddc:	e254401f 	subs	r4, r4, #31
  207de0:	aa00000f 	bge	207e24 <__adddf3+0x234>
  207de4:	e294400c 	adds	r4, r4, #12
  207de8:	ca000006 	bgt	207e08 <__adddf3+0x218>
  207dec:	e2844014 	add	r4, r4, #20
  207df0:	e2642020 	rsb	r2, r4, #32
  207df4:	e1a00430 	lsr	r0, r0, r4
  207df8:	e1800211 	orr	r0, r0, r1, lsl r2
  207dfc:	e1851431 	orr	r1, r5, r1, lsr r4
  207e00:	e8bd4030 	pop	{r4, r5, lr}
  207e04:	e12fff1e 	bx	lr
  207e08:	e264400c 	rsb	r4, r4, #12
  207e0c:	e2642020 	rsb	r2, r4, #32
  207e10:	e1a00230 	lsr	r0, r0, r2
  207e14:	e1800411 	orr	r0, r0, r1, lsl r4
  207e18:	e1a01005 	mov	r1, r5
  207e1c:	e8bd4030 	pop	{r4, r5, lr}
  207e20:	e12fff1e 	bx	lr
  207e24:	e1a00431 	lsr	r0, r1, r4
  207e28:	e1a01005 	mov	r1, r5
  207e2c:	e8bd4030 	pop	{r4, r5, lr}
  207e30:	e12fff1e 	bx	lr
  207e34:	e3340000 	teq	r4, #0
  207e38:	e2233601 	eor	r3, r3, #1048576	; 0x100000
  207e3c:	02211601 	eoreq	r1, r1, #1048576	; 0x100000
  207e40:	02844001 	addeq	r4, r4, #1
  207e44:	12455001 	subne	r5, r5, #1
  207e48:	eaffff8f 	b	207c8c <__adddf3+0x9c>
  207e4c:	e1f0cac4 	mvns	ip, r4, asr #21
  207e50:	11f0cac5 	mvnsne	ip, r5, asr #21
  207e54:	0a00001d 	beq	207ed0 <__adddf3+0x2e0>
  207e58:	e1340005 	teq	r4, r5
  207e5c:	01300002 	teqeq	r0, r2
  207e60:	0a000004 	beq	207e78 <__adddf3+0x288>
  207e64:	e194c000 	orrs	ip, r4, r0
  207e68:	01a01003 	moveq	r1, r3
  207e6c:	01a00002 	moveq	r0, r2
  207e70:	e8bd4030 	pop	{r4, r5, lr}
  207e74:	e12fff1e 	bx	lr
  207e78:	e1310003 	teq	r1, r3
  207e7c:	13a01000 	movne	r1, #0
  207e80:	13a00000 	movne	r0, #0
  207e84:	18bd4030 	popne	{r4, r5, lr}
  207e88:	112fff1e 	bxne	lr
  207e8c:	e1b0caa4 	lsrs	ip, r4, #21
  207e90:	1a000004 	bne	207ea8 <__adddf3+0x2b8>
  207e94:	e1b00080 	lsls	r0, r0, #1
  207e98:	e0b11001 	adcs	r1, r1, r1
  207e9c:	23811102 	orrcs	r1, r1, #-2147483648	; 0x80000000
  207ea0:	e8bd4030 	pop	{r4, r5, lr}
  207ea4:	e12fff1e 	bx	lr
  207ea8:	e2944501 	adds	r4, r4, #4194304	; 0x400000
  207eac:	32811601 	addcc	r1, r1, #1048576	; 0x100000
  207eb0:	38bd4030 	popcc	{r4, r5, lr}
  207eb4:	312fff1e 	bxcc	lr
  207eb8:	e2015102 	and	r5, r1, #-2147483648	; 0x80000000
  207ebc:	e385147f 	orr	r1, r5, #2130706432	; 0x7f000000
  207ec0:	e381160f 	orr	r1, r1, #15728640	; 0xf00000
  207ec4:	e3a00000 	mov	r0, #0
  207ec8:	e8bd4030 	pop	{r4, r5, lr}
  207ecc:	e12fff1e 	bx	lr
  207ed0:	e1f0cac4 	mvns	ip, r4, asr #21
  207ed4:	11a01003 	movne	r1, r3
  207ed8:	11a00002 	movne	r0, r2
  207edc:	01f0cac5 	mvnseq	ip, r5, asr #21
  207ee0:	11a03001 	movne	r3, r1
  207ee4:	11a02000 	movne	r2, r0
  207ee8:	e1904601 	orrs	r4, r0, r1, lsl #12
  207eec:	01925603 	orrseq	r5, r2, r3, lsl #12
  207ef0:	01310003 	teqeq	r1, r3
  207ef4:	13811702 	orrne	r1, r1, #524288	; 0x80000
  207ef8:	e8bd4030 	pop	{r4, r5, lr}
  207efc:	e12fff1e 	bx	lr

00207f00 <__aeabi_ui2d>:
  207f00:	e3300000 	teq	r0, #0
  207f04:	03a01000 	moveq	r1, #0
  207f08:	012fff1e 	bxeq	lr
  207f0c:	e92d4030 	push	{r4, r5, lr}
  207f10:	e3a04b01 	mov	r4, #1024	; 0x400
  207f14:	e2844032 	add	r4, r4, #50	; 0x32
  207f18:	e3a05000 	mov	r5, #0
  207f1c:	e3a01000 	mov	r1, #0
  207f20:	eaffff86 	b	207d40 <__adddf3+0x150>

00207f24 <__aeabi_i2d>:
  207f24:	e3300000 	teq	r0, #0
  207f28:	03a01000 	moveq	r1, #0
  207f2c:	012fff1e 	bxeq	lr
  207f30:	e92d4030 	push	{r4, r5, lr}
  207f34:	e3a04b01 	mov	r4, #1024	; 0x400
  207f38:	e2844032 	add	r4, r4, #50	; 0x32
  207f3c:	e2105102 	ands	r5, r0, #-2147483648	; 0x80000000
  207f40:	42600000 	rsbmi	r0, r0, #0
  207f44:	e3a01000 	mov	r1, #0
  207f48:	eaffff7c 	b	207d40 <__adddf3+0x150>

00207f4c <__aeabi_f2d>:
  207f4c:	e1b02080 	lsls	r2, r0, #1
  207f50:	e1a011c2 	asr	r1, r2, #3
  207f54:	e1a01061 	rrx	r1, r1
  207f58:	e1a00e02 	lsl	r0, r2, #28
  207f5c:	121234ff 	andsne	r3, r2, #-16777216	; 0xff000000
  207f60:	133304ff 	teqne	r3, #-16777216	; 0xff000000
  207f64:	1221130e 	eorne	r1, r1, #939524096	; 0x38000000
  207f68:	112fff1e 	bxne	lr
  207f6c:	e3320000 	teq	r2, #0
  207f70:	133304ff 	teqne	r3, #-16777216	; 0xff000000
  207f74:	012fff1e 	bxeq	lr
  207f78:	e92d4030 	push	{r4, r5, lr}
  207f7c:	e3a04d0e 	mov	r4, #896	; 0x380
  207f80:	e2015102 	and	r5, r1, #-2147483648	; 0x80000000
  207f84:	e3c11102 	bic	r1, r1, #-2147483648	; 0x80000000
  207f88:	eaffff6c 	b	207d40 <__adddf3+0x150>

00207f8c <__aeabi_ul2d>:
  207f8c:	e1902001 	orrs	r2, r0, r1
  207f90:	012fff1e 	bxeq	lr
  207f94:	e92d4030 	push	{r4, r5, lr}
  207f98:	e3a05000 	mov	r5, #0
  207f9c:	ea000006 	b	207fbc <__aeabi_l2d+0x1c>

00207fa0 <__aeabi_l2d>:
  207fa0:	e1902001 	orrs	r2, r0, r1
  207fa4:	012fff1e 	bxeq	lr
  207fa8:	e92d4030 	push	{r4, r5, lr}
  207fac:	e2115102 	ands	r5, r1, #-2147483648	; 0x80000000
  207fb0:	5a000001 	bpl	207fbc <__aeabi_l2d+0x1c>
  207fb4:	e2700000 	rsbs	r0, r0, #0
  207fb8:	e2e11000 	rsc	r1, r1, #0
  207fbc:	e3a04b01 	mov	r4, #1024	; 0x400
  207fc0:	e2844032 	add	r4, r4, #50	; 0x32
  207fc4:	e1b0cb21 	lsrs	ip, r1, #22
  207fc8:	0affff44 	beq	207ce0 <__adddf3+0xf0>
  207fcc:	e3a02003 	mov	r2, #3
  207fd0:	e1b0c1ac 	lsrs	ip, ip, #3
  207fd4:	12822003 	addne	r2, r2, #3
  207fd8:	e1b0c1ac 	lsrs	ip, ip, #3
  207fdc:	12822003 	addne	r2, r2, #3
  207fe0:	e08221ac 	add	r2, r2, ip, lsr #3
  207fe4:	e2623020 	rsb	r3, r2, #32
  207fe8:	e1a0c310 	lsl	ip, r0, r3
  207fec:	e1a00230 	lsr	r0, r0, r2
  207ff0:	e1800311 	orr	r0, r0, r1, lsl r3
  207ff4:	e1a01231 	lsr	r1, r1, r2
  207ff8:	e0844002 	add	r4, r4, r2
  207ffc:	eaffff37 	b	207ce0 <__adddf3+0xf0>

00208000 <__aeabi_dmul>:
  208000:	e92d4070 	push	{r4, r5, r6, lr}
  208004:	e3a0c0ff 	mov	ip, #255	; 0xff
  208008:	e38ccc07 	orr	ip, ip, #1792	; 0x700
  20800c:	e01c4a21 	ands	r4, ip, r1, lsr #20
  208010:	101c5a23 	andsne	r5, ip, r3, lsr #20
  208014:	1134000c 	teqne	r4, ip
  208018:	1135000c 	teqne	r5, ip
  20801c:	0b000075 	bleq	2081f8 <__aeabi_dmul+0x1f8>
  208020:	e0844005 	add	r4, r4, r5
  208024:	e0216003 	eor	r6, r1, r3
  208028:	e1c11a8c 	bic	r1, r1, ip, lsl #21
  20802c:	e1c33a8c 	bic	r3, r3, ip, lsl #21
  208030:	e1905601 	orrs	r5, r0, r1, lsl #12
  208034:	11925603 	orrsne	r5, r2, r3, lsl #12
  208038:	e3811601 	orr	r1, r1, #1048576	; 0x100000
  20803c:	e3833601 	orr	r3, r3, #1048576	; 0x100000
  208040:	0a00001d 	beq	2080bc <__aeabi_dmul+0xbc>
  208044:	e08ec290 	umull	ip, lr, r0, r2
  208048:	e3a05000 	mov	r5, #0
  20804c:	e0a5e291 	umlal	lr, r5, r1, r2
  208050:	e2062102 	and	r2, r6, #-2147483648	; 0x80000000
  208054:	e0a5e390 	umlal	lr, r5, r0, r3
  208058:	e3a06000 	mov	r6, #0
  20805c:	e0a65391 	umlal	r5, r6, r1, r3
  208060:	e33c0000 	teq	ip, #0
  208064:	138ee001 	orrne	lr, lr, #1
  208068:	e24440ff 	sub	r4, r4, #255	; 0xff
  20806c:	e3560c02 	cmp	r6, #512	; 0x200
  208070:	e2c44c03 	sbc	r4, r4, #768	; 0x300
  208074:	2a000002 	bcs	208084 <__aeabi_dmul+0x84>
  208078:	e1b0e08e 	lsls	lr, lr, #1
  20807c:	e0b55005 	adcs	r5, r5, r5
  208080:	e0a66006 	adc	r6, r6, r6
  208084:	e1821586 	orr	r1, r2, r6, lsl #11
  208088:	e1811aa5 	orr	r1, r1, r5, lsr #21
  20808c:	e1a00585 	lsl	r0, r5, #11
  208090:	e1800aae 	orr	r0, r0, lr, lsr #21
  208094:	e1a0e58e 	lsl	lr, lr, #11
  208098:	e254c0fd 	subs	ip, r4, #253	; 0xfd
  20809c:	835c0c07 	cmphi	ip, #1792	; 0x700
  2080a0:	8a000011 	bhi	2080ec <__aeabi_dmul+0xec>
  2080a4:	e35e0102 	cmp	lr, #-2147483648	; 0x80000000
  2080a8:	01b0e0a0 	lsrseq	lr, r0, #1
  2080ac:	e2b00000 	adcs	r0, r0, #0
  2080b0:	e0a11a04 	adc	r1, r1, r4, lsl #20
  2080b4:	e8bd4070 	pop	{r4, r5, r6, lr}
  2080b8:	e12fff1e 	bx	lr
  2080bc:	e2066102 	and	r6, r6, #-2147483648	; 0x80000000
  2080c0:	e1861001 	orr	r1, r6, r1
  2080c4:	e1800002 	orr	r0, r0, r2
  2080c8:	e0211003 	eor	r1, r1, r3
  2080cc:	e05440ac 	subs	r4, r4, ip, lsr #1
  2080d0:	c074500c 	rsbsgt	r5, r4, ip
  2080d4:	c1811a04 	orrgt	r1, r1, r4, lsl #20
  2080d8:	c8bd4070 	popgt	{r4, r5, r6, lr}
  2080dc:	c12fff1e 	bxgt	lr
  2080e0:	e3811601 	orr	r1, r1, #1048576	; 0x100000
  2080e4:	e3a0e000 	mov	lr, #0
  2080e8:	e2544001 	subs	r4, r4, #1
  2080ec:	ca00005d 	bgt	208268 <__aeabi_dmul+0x268>
  2080f0:	e3740036 	cmn	r4, #54	; 0x36
  2080f4:	d3a00000 	movle	r0, #0
  2080f8:	d2011102 	andle	r1, r1, #-2147483648	; 0x80000000
  2080fc:	d8bd4070 	pople	{r4, r5, r6, lr}
  208100:	d12fff1e 	bxle	lr
  208104:	e2644000 	rsb	r4, r4, #0
  208108:	e2544020 	subs	r4, r4, #32
  20810c:	aa00001a 	bge	20817c <__aeabi_dmul+0x17c>
  208110:	e294400c 	adds	r4, r4, #12
  208114:	ca00000c 	bgt	20814c <__aeabi_dmul+0x14c>
  208118:	e2844014 	add	r4, r4, #20
  20811c:	e2645020 	rsb	r5, r4, #32
  208120:	e1a03510 	lsl	r3, r0, r5
  208124:	e1a00430 	lsr	r0, r0, r4
  208128:	e1800511 	orr	r0, r0, r1, lsl r5
  20812c:	e2012102 	and	r2, r1, #-2147483648	; 0x80000000
  208130:	e3c11102 	bic	r1, r1, #-2147483648	; 0x80000000
  208134:	e0900fa3 	adds	r0, r0, r3, lsr #31
  208138:	e0a21431 	adc	r1, r2, r1, lsr r4
  20813c:	e19ee083 	orrs	lr, lr, r3, lsl #1
  208140:	01c00fa3 	biceq	r0, r0, r3, lsr #31
  208144:	e8bd4070 	pop	{r4, r5, r6, lr}
  208148:	e12fff1e 	bx	lr
  20814c:	e264400c 	rsb	r4, r4, #12
  208150:	e2645020 	rsb	r5, r4, #32
  208154:	e1a03410 	lsl	r3, r0, r4
  208158:	e1a00530 	lsr	r0, r0, r5
  20815c:	e1800411 	orr	r0, r0, r1, lsl r4
  208160:	e2011102 	and	r1, r1, #-2147483648	; 0x80000000
  208164:	e0900fa3 	adds	r0, r0, r3, lsr #31
  208168:	e2a11000 	adc	r1, r1, #0
  20816c:	e19ee083 	orrs	lr, lr, r3, lsl #1
  208170:	01c00fa3 	biceq	r0, r0, r3, lsr #31
  208174:	e8bd4070 	pop	{r4, r5, r6, lr}
  208178:	e12fff1e 	bx	lr
  20817c:	e2645020 	rsb	r5, r4, #32
  208180:	e18ee510 	orr	lr, lr, r0, lsl r5
  208184:	e1a03430 	lsr	r3, r0, r4
  208188:	e1833511 	orr	r3, r3, r1, lsl r5
  20818c:	e1a00431 	lsr	r0, r1, r4
  208190:	e2011102 	and	r1, r1, #-2147483648	; 0x80000000
  208194:	e1c00431 	bic	r0, r0, r1, lsr r4
  208198:	e0800fa3 	add	r0, r0, r3, lsr #31
  20819c:	e19ee083 	orrs	lr, lr, r3, lsl #1
  2081a0:	01c00fa3 	biceq	r0, r0, r3, lsr #31
  2081a4:	e8bd4070 	pop	{r4, r5, r6, lr}
  2081a8:	e12fff1e 	bx	lr
  2081ac:	e3340000 	teq	r4, #0
  2081b0:	1a000008 	bne	2081d8 <__aeabi_dmul+0x1d8>
  2081b4:	e2016102 	and	r6, r1, #-2147483648	; 0x80000000
  2081b8:	e1b00080 	lsls	r0, r0, #1
  2081bc:	e0a11001 	adc	r1, r1, r1
  2081c0:	e3110601 	tst	r1, #1048576	; 0x100000
  2081c4:	02444001 	subeq	r4, r4, #1
  2081c8:	0afffffa 	beq	2081b8 <__aeabi_dmul+0x1b8>
  2081cc:	e1811006 	orr	r1, r1, r6
  2081d0:	e3350000 	teq	r5, #0
  2081d4:	112fff1e 	bxne	lr
  2081d8:	e2036102 	and	r6, r3, #-2147483648	; 0x80000000
  2081dc:	e1b02082 	lsls	r2, r2, #1
  2081e0:	e0a33003 	adc	r3, r3, r3
  2081e4:	e3130601 	tst	r3, #1048576	; 0x100000
  2081e8:	02455001 	subeq	r5, r5, #1
  2081ec:	0afffffa 	beq	2081dc <__aeabi_dmul+0x1dc>
  2081f0:	e1833006 	orr	r3, r3, r6
  2081f4:	e12fff1e 	bx	lr
  2081f8:	e134000c 	teq	r4, ip
  2081fc:	e00c5a23 	and	r5, ip, r3, lsr #20
  208200:	1135000c 	teqne	r5, ip
  208204:	0a000007 	beq	208228 <__aeabi_dmul+0x228>
  208208:	e1906081 	orrs	r6, r0, r1, lsl #1
  20820c:	11926083 	orrsne	r6, r2, r3, lsl #1
  208210:	1affffe5 	bne	2081ac <__aeabi_dmul+0x1ac>
  208214:	e0211003 	eor	r1, r1, r3
  208218:	e2011102 	and	r1, r1, #-2147483648	; 0x80000000
  20821c:	e3a00000 	mov	r0, #0
  208220:	e8bd4070 	pop	{r4, r5, r6, lr}
  208224:	e12fff1e 	bx	lr
  208228:	e1906081 	orrs	r6, r0, r1, lsl #1
  20822c:	01a00002 	moveq	r0, r2
  208230:	01a01003 	moveq	r1, r3
  208234:	11926083 	orrsne	r6, r2, r3, lsl #1
  208238:	0a000010 	beq	208280 <__aeabi_dmul+0x280>
  20823c:	e134000c 	teq	r4, ip
  208240:	1a000001 	bne	20824c <__aeabi_dmul+0x24c>
  208244:	e1906601 	orrs	r6, r0, r1, lsl #12
  208248:	1a00000c 	bne	208280 <__aeabi_dmul+0x280>
  20824c:	e135000c 	teq	r5, ip
  208250:	1a000003 	bne	208264 <__aeabi_dmul+0x264>
  208254:	e1926603 	orrs	r6, r2, r3, lsl #12
  208258:	11a00002 	movne	r0, r2
  20825c:	11a01003 	movne	r1, r3
  208260:	1a000006 	bne	208280 <__aeabi_dmul+0x280>
  208264:	e0211003 	eor	r1, r1, r3
  208268:	e2011102 	and	r1, r1, #-2147483648	; 0x80000000
  20826c:	e381147f 	orr	r1, r1, #2130706432	; 0x7f000000
  208270:	e381160f 	orr	r1, r1, #15728640	; 0xf00000
  208274:	e3a00000 	mov	r0, #0
  208278:	e8bd4070 	pop	{r4, r5, r6, lr}
  20827c:	e12fff1e 	bx	lr
  208280:	e381147f 	orr	r1, r1, #2130706432	; 0x7f000000
  208284:	e381173e 	orr	r1, r1, #16252928	; 0xf80000
  208288:	e8bd4070 	pop	{r4, r5, r6, lr}
  20828c:	e12fff1e 	bx	lr

00208290 <__aeabi_ddiv>:
  208290:	e92d4070 	push	{r4, r5, r6, lr}
  208294:	e3a0c0ff 	mov	ip, #255	; 0xff
  208298:	e38ccc07 	orr	ip, ip, #1792	; 0x700
  20829c:	e01c4a21 	ands	r4, ip, r1, lsr #20
  2082a0:	101c5a23 	andsne	r5, ip, r3, lsr #20
  2082a4:	1134000c 	teqne	r4, ip
  2082a8:	1135000c 	teqne	r5, ip
  2082ac:	0b00005e 	bleq	20842c <__aeabi_ddiv+0x19c>
  2082b0:	e0444005 	sub	r4, r4, r5
  2082b4:	e021e003 	eor	lr, r1, r3
  2082b8:	e1925603 	orrs	r5, r2, r3, lsl #12
  2082bc:	e1a01601 	lsl	r1, r1, #12
  2082c0:	0a00004c 	beq	2083f8 <__aeabi_ddiv+0x168>
  2082c4:	e1a03603 	lsl	r3, r3, #12
  2082c8:	e3a05201 	mov	r5, #268435456	; 0x10000000
  2082cc:	e1853223 	orr	r3, r5, r3, lsr #4
  2082d0:	e1833c22 	orr	r3, r3, r2, lsr #24
  2082d4:	e1a02402 	lsl	r2, r2, #8
  2082d8:	e1855221 	orr	r5, r5, r1, lsr #4
  2082dc:	e1855c20 	orr	r5, r5, r0, lsr #24
  2082e0:	e1a06400 	lsl	r6, r0, #8
  2082e4:	e20e1102 	and	r1, lr, #-2147483648	; 0x80000000
  2082e8:	e1550003 	cmp	r5, r3
  2082ec:	01560002 	cmpeq	r6, r2
  2082f0:	e2a440fd 	adc	r4, r4, #253	; 0xfd
  2082f4:	e2844c03 	add	r4, r4, #768	; 0x300
  2082f8:	2a000001 	bcs	208304 <__aeabi_ddiv+0x74>
  2082fc:	e1b030a3 	lsrs	r3, r3, #1
  208300:	e1a02062 	rrx	r2, r2
  208304:	e0566002 	subs	r6, r6, r2
  208308:	e0c55003 	sbc	r5, r5, r3
  20830c:	e1b030a3 	lsrs	r3, r3, #1
  208310:	e1a02062 	rrx	r2, r2
  208314:	e3a00601 	mov	r0, #1048576	; 0x100000
  208318:	e3a0c702 	mov	ip, #524288	; 0x80000
  20831c:	e056e002 	subs	lr, r6, r2
  208320:	e0d5e003 	sbcs	lr, r5, r3
  208324:	20466002 	subcs	r6, r6, r2
  208328:	21a0500e 	movcs	r5, lr
  20832c:	2180000c 	orrcs	r0, r0, ip
  208330:	e1b030a3 	lsrs	r3, r3, #1
  208334:	e1a02062 	rrx	r2, r2
  208338:	e056e002 	subs	lr, r6, r2
  20833c:	e0d5e003 	sbcs	lr, r5, r3
  208340:	20466002 	subcs	r6, r6, r2
  208344:	21a0500e 	movcs	r5, lr
  208348:	218000ac 	orrcs	r0, r0, ip, lsr #1
  20834c:	e1b030a3 	lsrs	r3, r3, #1
  208350:	e1a02062 	rrx	r2, r2
  208354:	e056e002 	subs	lr, r6, r2
  208358:	e0d5e003 	sbcs	lr, r5, r3
  20835c:	20466002 	subcs	r6, r6, r2
  208360:	21a0500e 	movcs	r5, lr
  208364:	2180012c 	orrcs	r0, r0, ip, lsr #2
  208368:	e1b030a3 	lsrs	r3, r3, #1
  20836c:	e1a02062 	rrx	r2, r2
  208370:	e056e002 	subs	lr, r6, r2
  208374:	e0d5e003 	sbcs	lr, r5, r3
  208378:	20466002 	subcs	r6, r6, r2
  20837c:	21a0500e 	movcs	r5, lr
  208380:	218001ac 	orrcs	r0, r0, ip, lsr #3
  208384:	e195e006 	orrs	lr, r5, r6
  208388:	0a00000d 	beq	2083c4 <__aeabi_ddiv+0x134>
  20838c:	e1a05205 	lsl	r5, r5, #4
  208390:	e1855e26 	orr	r5, r5, r6, lsr #28
  208394:	e1a06206 	lsl	r6, r6, #4
  208398:	e1a03183 	lsl	r3, r3, #3
  20839c:	e1833ea2 	orr	r3, r3, r2, lsr #29
  2083a0:	e1a02182 	lsl	r2, r2, #3
  2083a4:	e1b0c22c 	lsrs	ip, ip, #4
  2083a8:	1affffdb 	bne	20831c <__aeabi_ddiv+0x8c>
  2083ac:	e3110601 	tst	r1, #1048576	; 0x100000
  2083b0:	1a000006 	bne	2083d0 <__aeabi_ddiv+0x140>
  2083b4:	e1811000 	orr	r1, r1, r0
  2083b8:	e3a00000 	mov	r0, #0
  2083bc:	e3a0c102 	mov	ip, #-2147483648	; 0x80000000
  2083c0:	eaffffd5 	b	20831c <__aeabi_ddiv+0x8c>
  2083c4:	e3110601 	tst	r1, #1048576	; 0x100000
  2083c8:	01811000 	orreq	r1, r1, r0
  2083cc:	03a00000 	moveq	r0, #0
  2083d0:	e254c0fd 	subs	ip, r4, #253	; 0xfd
  2083d4:	835c0c07 	cmphi	ip, #1792	; 0x700
  2083d8:	8affff43 	bhi	2080ec <__aeabi_dmul+0xec>
  2083dc:	e055c003 	subs	ip, r5, r3
  2083e0:	0056c002 	subseq	ip, r6, r2
  2083e4:	01b0c0a0 	lsrseq	ip, r0, #1
  2083e8:	e2b00000 	adcs	r0, r0, #0
  2083ec:	e0a11a04 	adc	r1, r1, r4, lsl #20
  2083f0:	e8bd4070 	pop	{r4, r5, r6, lr}
  2083f4:	e12fff1e 	bx	lr
  2083f8:	e20ee102 	and	lr, lr, #-2147483648	; 0x80000000
  2083fc:	e18e1621 	orr	r1, lr, r1, lsr #12
  208400:	e09440ac 	adds	r4, r4, ip, lsr #1
  208404:	c074500c 	rsbsgt	r5, r4, ip
  208408:	c1811a04 	orrgt	r1, r1, r4, lsl #20
  20840c:	c8bd4070 	popgt	{r4, r5, r6, lr}
  208410:	c12fff1e 	bxgt	lr
  208414:	e3811601 	orr	r1, r1, #1048576	; 0x100000
  208418:	e3a0e000 	mov	lr, #0
  20841c:	e2544001 	subs	r4, r4, #1
  208420:	eaffff31 	b	2080ec <__aeabi_dmul+0xec>
  208424:	e185e006 	orr	lr, r5, r6
  208428:	eaffff2f 	b	2080ec <__aeabi_dmul+0xec>
  20842c:	e00c5a23 	and	r5, ip, r3, lsr #20
  208430:	e134000c 	teq	r4, ip
  208434:	0135000c 	teqeq	r5, ip
  208438:	0affff90 	beq	208280 <__aeabi_dmul+0x280>
  20843c:	e134000c 	teq	r4, ip
  208440:	1a000006 	bne	208460 <__aeabi_ddiv+0x1d0>
  208444:	e1904601 	orrs	r4, r0, r1, lsl #12
  208448:	1affff8c 	bne	208280 <__aeabi_dmul+0x280>
  20844c:	e135000c 	teq	r5, ip
  208450:	1affff83 	bne	208264 <__aeabi_dmul+0x264>
  208454:	e1a00002 	mov	r0, r2
  208458:	e1a01003 	mov	r1, r3
  20845c:	eaffff87 	b	208280 <__aeabi_dmul+0x280>
  208460:	e135000c 	teq	r5, ip
  208464:	1a000004 	bne	20847c <__aeabi_ddiv+0x1ec>
  208468:	e1925603 	orrs	r5, r2, r3, lsl #12
  20846c:	0affff68 	beq	208214 <__aeabi_dmul+0x214>
  208470:	e1a00002 	mov	r0, r2
  208474:	e1a01003 	mov	r1, r3
  208478:	eaffff80 	b	208280 <__aeabi_dmul+0x280>
  20847c:	e1906081 	orrs	r6, r0, r1, lsl #1
  208480:	11926083 	orrsne	r6, r2, r3, lsl #1
  208484:	1affff48 	bne	2081ac <__aeabi_dmul+0x1ac>
  208488:	e1904081 	orrs	r4, r0, r1, lsl #1
  20848c:	1affff74 	bne	208264 <__aeabi_dmul+0x264>
  208490:	e1925083 	orrs	r5, r2, r3, lsl #1
  208494:	1affff5e 	bne	208214 <__aeabi_dmul+0x214>
  208498:	eaffff78 	b	208280 <__aeabi_dmul+0x280>

0020849c <__gedf2>:
  20849c:	e3e0c000 	mvn	ip, #0
  2084a0:	ea000002 	b	2084b0 <__cmpdf2+0x4>

002084a4 <__ledf2>:
  2084a4:	e3a0c001 	mov	ip, #1
  2084a8:	ea000000 	b	2084b0 <__cmpdf2+0x4>

002084ac <__cmpdf2>:
  2084ac:	e3a0c001 	mov	ip, #1
  2084b0:	e52dc004 	push	{ip}		; (str ip, [sp, #-4]!)
  2084b4:	e1a0c081 	lsl	ip, r1, #1
  2084b8:	e1f0cacc 	mvns	ip, ip, asr #21
  2084bc:	e1a0c083 	lsl	ip, r3, #1
  2084c0:	11f0cacc 	mvnsne	ip, ip, asr #21
  2084c4:	0a00000e 	beq	208504 <__cmpdf2+0x58>
  2084c8:	e28dd004 	add	sp, sp, #4
  2084cc:	e190c081 	orrs	ip, r0, r1, lsl #1
  2084d0:	0192c083 	orrseq	ip, r2, r3, lsl #1
  2084d4:	11310003 	teqne	r1, r3
  2084d8:	01300002 	teqeq	r0, r2
  2084dc:	03a00000 	moveq	r0, #0
  2084e0:	012fff1e 	bxeq	lr
  2084e4:	e3700000 	cmn	r0, #0
  2084e8:	e1310003 	teq	r1, r3
  2084ec:	51510003 	cmppl	r1, r3
  2084f0:	01500002 	cmpeq	r0, r2
  2084f4:	21a00fc3 	asrcs	r0, r3, #31
  2084f8:	31e00fc3 	mvncc	r0, r3, asr #31
  2084fc:	e3800001 	orr	r0, r0, #1
  208500:	e12fff1e 	bx	lr
  208504:	e1a0c081 	lsl	ip, r1, #1
  208508:	e1f0cacc 	mvns	ip, ip, asr #21
  20850c:	1a000001 	bne	208518 <__cmpdf2+0x6c>
  208510:	e190c601 	orrs	ip, r0, r1, lsl #12
  208514:	1a000004 	bne	20852c <__cmpdf2+0x80>
  208518:	e1a0c083 	lsl	ip, r3, #1
  20851c:	e1f0cacc 	mvns	ip, ip, asr #21
  208520:	1affffe8 	bne	2084c8 <__cmpdf2+0x1c>
  208524:	e192c603 	orrs	ip, r2, r3, lsl #12
  208528:	0affffe6 	beq	2084c8 <__cmpdf2+0x1c>
  20852c:	e49d0004 	pop	{r0}		; (ldr r0, [sp], #4)
  208530:	e12fff1e 	bx	lr

00208534 <__aeabi_cdrcmple>:
  208534:	e1a0c000 	mov	ip, r0
  208538:	e1a00002 	mov	r0, r2
  20853c:	e1a0200c 	mov	r2, ip
  208540:	e1a0c001 	mov	ip, r1
  208544:	e1a01003 	mov	r1, r3
  208548:	e1a0300c 	mov	r3, ip
  20854c:	eaffffff 	b	208550 <__aeabi_cdcmpeq>

00208550 <__aeabi_cdcmpeq>:
  208550:	e92d4001 	push	{r0, lr}
  208554:	ebffffd4 	bl	2084ac <__cmpdf2>
  208558:	e3500000 	cmp	r0, #0
  20855c:	43700000 	cmnmi	r0, #0
  208560:	e8bd4001 	pop	{r0, lr}
  208564:	e12fff1e 	bx	lr

00208568 <__aeabi_dcmpeq>:
  208568:	e52de008 	str	lr, [sp, #-8]!
  20856c:	ebfffff7 	bl	208550 <__aeabi_cdcmpeq>
  208570:	03a00001 	moveq	r0, #1
  208574:	13a00000 	movne	r0, #0
  208578:	e49de008 	ldr	lr, [sp], #8
  20857c:	e12fff1e 	bx	lr

00208580 <__aeabi_dcmplt>:
  208580:	e52de008 	str	lr, [sp, #-8]!
  208584:	ebfffff1 	bl	208550 <__aeabi_cdcmpeq>
  208588:	33a00001 	movcc	r0, #1
  20858c:	23a00000 	movcs	r0, #0
  208590:	e49de008 	ldr	lr, [sp], #8
  208594:	e12fff1e 	bx	lr

00208598 <__aeabi_dcmple>:
  208598:	e52de008 	str	lr, [sp, #-8]!
  20859c:	ebffffeb 	bl	208550 <__aeabi_cdcmpeq>
  2085a0:	93a00001 	movls	r0, #1
  2085a4:	83a00000 	movhi	r0, #0
  2085a8:	e49de008 	ldr	lr, [sp], #8
  2085ac:	e12fff1e 	bx	lr

002085b0 <__aeabi_dcmpge>:
  2085b0:	e52de008 	str	lr, [sp, #-8]!
  2085b4:	ebffffde 	bl	208534 <__aeabi_cdrcmple>
  2085b8:	93a00001 	movls	r0, #1
  2085bc:	83a00000 	movhi	r0, #0
  2085c0:	e49de008 	ldr	lr, [sp], #8
  2085c4:	e12fff1e 	bx	lr

002085c8 <__aeabi_dcmpgt>:
  2085c8:	e52de008 	str	lr, [sp, #-8]!
  2085cc:	ebffffd8 	bl	208534 <__aeabi_cdrcmple>
  2085d0:	33a00001 	movcc	r0, #1
  2085d4:	23a00000 	movcs	r0, #0
  2085d8:	e49de008 	ldr	lr, [sp], #8
  2085dc:	e12fff1e 	bx	lr

002085e0 <__aeabi_d2iz>:
  2085e0:	e1a02081 	lsl	r2, r1, #1
  2085e4:	e2922602 	adds	r2, r2, #2097152	; 0x200000
  2085e8:	2a00000c 	bcs	208620 <__aeabi_d2iz+0x40>
  2085ec:	5a000009 	bpl	208618 <__aeabi_d2iz+0x38>
  2085f0:	e3e03e3e 	mvn	r3, #992	; 0x3e0
  2085f4:	e0532ac2 	subs	r2, r3, r2, asr #21
  2085f8:	9a00000a 	bls	208628 <__aeabi_d2iz+0x48>
  2085fc:	e1a03581 	lsl	r3, r1, #11
  208600:	e3833102 	orr	r3, r3, #-2147483648	; 0x80000000
  208604:	e1833aa0 	orr	r3, r3, r0, lsr #21
  208608:	e3110102 	tst	r1, #-2147483648	; 0x80000000
  20860c:	e1a00233 	lsr	r0, r3, r2
  208610:	12600000 	rsbne	r0, r0, #0
  208614:	e12fff1e 	bx	lr
  208618:	e3a00000 	mov	r0, #0
  20861c:	e12fff1e 	bx	lr
  208620:	e1900601 	orrs	r0, r0, r1, lsl #12
  208624:	1a000002 	bne	208634 <__aeabi_d2iz+0x54>
  208628:	e2110102 	ands	r0, r1, #-2147483648	; 0x80000000
  20862c:	03e00102 	mvneq	r0, #-2147483648	; 0x80000000
  208630:	e12fff1e 	bx	lr
  208634:	e3a00000 	mov	r0, #0
  208638:	e12fff1e 	bx	lr
